TN:
SF:/usr/include/x86_64-linux-gnu/qt5/QtCore/qarraydata.h
FN:123,_ZN10QArrayData10sharedNullEv
FNDA:0,_ZN10QArrayData10sharedNullEv
FN:236,_ZN15QTypedArrayDataItE10deallocateEP10QArrayData
FNDA:0,_ZN15QTypedArrayDataItE10deallocateEP10QArrayData
FN:257,_ZN15QTypedArrayDataItE10sharedNullEv
FNDA:0,_ZN15QTypedArrayDataItE10sharedNullEv
DA:123,0
DA:236,0
DA:239,0
DA:240,0
DA:257,0
DA:260,0
end_of_record
SF:/usr/include/x86_64-linux-gnu/qt5/QtCore/qrefcount.h
FN:54,_ZN9QtPrivate8RefCount3refEv
FNDA:0,_ZN9QtPrivate8RefCount3refEv
FN:65,_ZN9QtPrivate8RefCount5derefEv
FNDA:0,_ZN9QtPrivate8RefCount5derefEv
DA:54,0
DA:55,0
DA:57,0
DA:58,0
DA:60,0
DA:61,0
DA:62,0
DA:65,0
DA:66,0
DA:68,0
DA:69,0
DA:71,0
DA:72,0
DA:73,0
end_of_record
SF:/usr/include/x86_64-linux-gnu/qt5/QtCore/qstring.h
FN:957,_ZN7QStringC2ERKS_
FNDA:0,_ZN7QStringC2ERKS_
FN:1134,_ZN7QStringC2Ev
FNDA:0,_ZN7QStringC2Ev
FN:1135,_ZN7QStringD2Ev
FNDA:0,_ZN7QStringD2Ev
DA:957,0
DA:958,0
DA:1134,0
DA:1135,0
end_of_record
SF:/usr/include/x86_64-linux-gnu/qt5/QtCore/qbasicatomic.h
FN:103,_ZNK19QBasicAtomicIntegerIiE4loadEv
FNDA:0,_ZNK19QBasicAtomicIntegerIiE4loadEv
FN:114,_ZN19QBasicAtomicIntegerIiE3refEv
FNDA:0,_ZN19QBasicAtomicIntegerIiE3refEv
FN:115,_ZN19QBasicAtomicIntegerIiE5derefEv
FNDA:0,_ZN19QBasicAtomicIntegerIiE5derefEv
DA:103,0
DA:114,0
DA:115,0
end_of_record
SF:/home/user/Desktop/pobedi-me-ako-znas/application/podrunda.cpp
FN:4,_ZN8PodrundaC2Ev
FNDA:0,_ZN8PodrundaC2Ev
FN:14,_ZNK8Podrunda17getAnswerQuestionEv
FNDA:0,_ZNK8Podrunda17getAnswerQuestionEv
FN:19,_ZN8Podrunda17setAnswerQuestionE7QStringd
FNDA:0,_ZN8Podrunda17setAnswerQuestionE7QStringd
DA:4,0
DA:9,0
DA:12,0
DA:14,0
DA:16,0
DA:19,0
DA:21,0
DA:22,0
DA:23,0
end_of_record
SF:/usr/include/x86_64-linux-gnu/qt5/QtCore/qatomic_cxx11.h
FN:225,_ZN10QAtomicOpsIiE4loadIiEET_RKSt6atomicIS2_E
FNDA:0,_ZN10QAtomicOpsIiE4loadIiEET_RKSt6atomicIS2_E
FN:263,_ZN10QAtomicOpsIiE3refIiEEbRSt6atomicIT_E
FNDA:0,_ZN10QAtomicOpsIiE3refIiEEbRSt6atomicIT_E
FN:269,_ZN10QAtomicOpsIiE5derefIiEEbRSt6atomicIT_E
FNDA:0,_ZN10QAtomicOpsIiE5derefIiEEbRSt6atomicIT_E
DA:225,0
DA:227,0
DA:263,0
DA:265,0
DA:269,0
DA:271,0
end_of_record
SF:/usr/include/c++/9/bits/atomic_base.h
FN:99,_ZStanSt12memory_orderSt23__memory_order_modifier
FNDA:0,_ZStanSt12memory_orderSt23__memory_order_modifier
FN:318,_ZNSt13__atomic_baseIiEppEv
FNDA:0,_ZNSt13__atomic_baseIiEppEv
FN:326,_ZNSt13__atomic_baseIiEmmEv
FNDA:0,_ZNSt13__atomic_baseIiEmmEv
DA:99,0
DA:101,0
DA:318,0
DA:319,0
DA:326,0
DA:327,0
DA:415,0
DA:419,0
end_of_record
SF:/usr/include/c++/9/bits/stl_pair.h
FN:229,_ZNSt4pairI7QStringdEC1IS0_dLb1EEEv
FNDA:0,_ZNSt4pairI7QStringdEC1IS0_dLb1EEEv
FN:303,_ZNSt4pairI7QStringdEC2ERKS1_
FNDA:0,_ZNSt4pairI7QStringdEC2ERKS1_
DA:229,0
DA:230,0
DA:303,0
end_of_record
TN:
SF:/home/user/Desktop/pobedi-me-ako-znas/build/application/application_autogen/EWIEGA46WW/moc_reckoui.cpp
FN:92,_ZN7ReckoUI18qt_static_metacallEP7QObjectN11QMetaObject4CallEiPPv
FNDA:230,_ZN7ReckoUI18qt_static_metacallEP7QObjectN11QMetaObject4CallEiPPv
FN:145,_ZNK7ReckoUI10metaObjectEv
FNDA:17366,_ZNK7ReckoUI10metaObjectEv
FN:150,_ZN7ReckoUI11qt_metacastEPKc
FNDA:16175,_ZN7ReckoUI11qt_metacastEPKc
FN:158,_ZN7ReckoUI11qt_metacallEN11QMetaObject4CallEiPPv
FNDA:84,_ZN7ReckoUI11qt_metacallEN11QMetaObject4CallEiPPv
FN:176,_ZN7ReckoUI7timesUpEv
FNDA:1,_ZN7ReckoUI7timesUpEv
FN:182,_ZN7ReckoUI8gameEndsEv
FNDA:0,_ZN7ReckoUI8gameEndsEv
FN:188,_ZN7ReckoUI9mGameEndsEv
FNDA:2,_ZN7ReckoUI9mGameEndsEv
DA:92,230
DA:94,230
DA:95,222
DA:97,222
DA:98,0
DA:99,0
DA:100,0
DA:101,0
DA:102,204
DA:103,0
DA:104,18
DA:105,0
DA:106,222
DA:108,8
DA:109,8
DA:112,8
DA:113,6
DA:114,6
DA:119,2
DA:120,0
DA:121,0
DA:126,2
DA:127,2
DA:128,2
DA:145,17366
DA:147,17366
DA:150,16175
DA:152,16175
DA:153,16175
DA:154,0
DA:155,16175
DA:158,84
DA:160,84
DA:161,84
DA:162,84
DA:163,0
DA:164,0
DA:165,0
DA:166,0
DA:167,0
DA:168,0
DA:169,0
DA:170,0
DA:172,0
DA:176,1
DA:178,1
DA:179,1
DA:182,0
DA:184,0
DA:185,0
DA:188,2
DA:190,2
DA:191,2
end_of_record
SF:/usr/include/x86_64-linux-gnu/qt5/QtCore/qrefcount.h
FN:65,_ZN9QtPrivate8RefCount5derefEv
FNDA:7593,_ZN9QtPrivate8RefCount5derefEv
DA:65,7593
DA:66,7593
DA:68,7593
DA:69,2
DA:71,7591
DA:72,256
DA:73,7335
end_of_record
SF:/home/user/Desktop/pobedi-me-ako-znas/build/application/application_autogen/EWIEGA46WW/moc_pogodista.cpp
FN:57,_ZN9PogodiSta18qt_static_metacallEP7QObjectN11QMetaObject4CallEiPPv
FNDA:0,_ZN9PogodiSta18qt_static_metacallEP7QObjectN11QMetaObject4CallEiPPv
FN:75,_ZNK9PogodiSta10metaObjectEv
FNDA:0,_ZNK9PogodiSta10metaObjectEv
FN:80,_ZN9PogodiSta11qt_metacastEPKc
FNDA:0,_ZN9PogodiSta11qt_metacastEPKc
FN:88,_ZN9PogodiSta11qt_metacallEN11QMetaObject4CallEiPPv
FNDA:0,_ZN9PogodiSta11qt_metacallEN11QMetaObject4CallEiPPv
DA:57,0
DA:63,0
DA:75,0
DA:77,0
DA:80,0
DA:82,0
DA:83,0
DA:84,0
DA:85,0
DA:88,0
DA:90,0
DA:91,0
end_of_record
SF:/home/user/Desktop/pobedi-me-ako-znas/build/application/application_autogen/EWIEGA46WW/moc_infolog.cpp
FN:65,_ZN7InfoLog18qt_static_metacallEP7QObjectN11QMetaObject4CallEiPPv
FNDA:0,_ZN7InfoLog18qt_static_metacallEP7QObjectN11QMetaObject4CallEiPPv
FN:88,_ZNK7InfoLog10metaObjectEv
FNDA:0,_ZNK7InfoLog10metaObjectEv
FN:93,_ZN7InfoLog11qt_metacastEPKc
FNDA:0,_ZN7InfoLog11qt_metacastEPKc
FN:101,_ZN7InfoLog11qt_metacallEN11QMetaObject4CallEiPPv
FNDA:0,_ZN7InfoLog11qt_metacallEN11QMetaObject4CallEiPPv
DA:65,0
DA:67,0
DA:68,0
DA:70,0
DA:71,0
DA:72,0
DA:76,0
DA:88,0
DA:90,0
DA:93,0
DA:95,0
DA:96,0
DA:97,0
DA:98,0
DA:101,0
DA:103,0
DA:104,0
DA:105,0
DA:106,0
DA:107,0
DA:108,0
DA:109,0
DA:110,0
DA:111,0
DA:112,0
DA:113,0
DA:115,0
end_of_record
SF:/home/user/Desktop/pobedi-me-ako-znas/build/application/application_autogen/EWIEGA46WW/moc_resultdialog.cpp
FN:57,_ZN12ResultDialog18qt_static_metacallEP7QObjectN11QMetaObject4CallEiPPv
FNDA:0,_ZN12ResultDialog18qt_static_metacallEP7QObjectN11QMetaObject4CallEiPPv
FN:75,_ZNK12ResultDialog10metaObjectEv
FNDA:582,_ZNK12ResultDialog10metaObjectEv
FN:80,_ZN12ResultDialog11qt_metacastEPKc
FNDA:298,_ZN12ResultDialog11qt_metacastEPKc
FN:88,_ZN12ResultDialog11qt_metacallEN11QMetaObject4CallEiPPv
FNDA:0,_ZN12ResultDialog11qt_metacallEN11QMetaObject4CallEiPPv
DA:57,0
DA:63,0
DA:75,582
DA:77,582
DA:80,298
DA:82,298
DA:83,298
DA:84,0
DA:85,298
DA:88,0
DA:90,0
DA:91,0
end_of_record
SF:/home/user/Desktop/pobedi-me-ako-znas/application/podrunda.h
end_of_record
SF:/usr/include/x86_64-linux-gnu/qt5/QtCore/qbasicatomic.h
FN:103,_ZNK19QBasicAtomicIntegerIiE4loadEv
FNDA:9455,_ZNK19QBasicAtomicIntegerIiE4loadEv
FN:115,_ZN19QBasicAtomicIntegerIiE5derefEv
FNDA:7335,_ZN19QBasicAtomicIntegerIiE5derefEv
DA:103,9455
DA:115,7335
end_of_record
SF:/home/user/Desktop/pobedi-me-ako-znas/build/application/application_autogen/EWIEGA46WW/moc_podrundaui.cpp
FN:85,_ZN10Podrundaui18qt_static_metacallEP7QObjectN11QMetaObject4CallEiPPv
FNDA:0,_ZN10Podrundaui18qt_static_metacallEP7QObjectN11QMetaObject4CallEiPPv
FN:129,_ZNK10Podrundaui10metaObjectEv
FNDA:0,_ZNK10Podrundaui10metaObjectEv
FN:134,_ZN10Podrundaui11qt_metacastEPKc
FNDA:0,_ZN10Podrundaui11qt_metacastEPKc
FN:142,_ZN10Podrundaui11qt_metacallEN11QMetaObject4CallEiPPv
FNDA:0,_ZN10Podrundaui11qt_metacallEN11QMetaObject4CallEiPPv
FN:160,_ZN10Podrundaui7timesUpEv
FNDA:0,_ZN10Podrundaui7timesUpEv
FN:166,_ZN10Podrundaui9gameEndedEv
FNDA:0,_ZN10Podrundaui9gameEndedEv
DA:85,0
DA:87,0
DA:88,0
DA:90,0
DA:91,0
DA:92,0
DA:93,0
DA:94,0
DA:95,0
DA:96,0
DA:97,0
DA:99,0
DA:100,0
DA:103,0
DA:104,0
DA:105,0
DA:110,0
DA:111,0
DA:112,0
DA:129,0
DA:131,0
DA:134,0
DA:136,0
DA:137,0
DA:138,0
DA:139,0
DA:142,0
DA:144,0
DA:145,0
DA:146,0
DA:147,0
DA:148,0
DA:149,0
DA:150,0
DA:151,0
DA:152,0
DA:153,0
DA:154,0
DA:156,0
DA:160,0
DA:162,0
DA:163,0
DA:166,0
DA:168,0
DA:169,0
end_of_record
SF:/home/user/Desktop/pobedi-me-ako-znas/build/application/application_autogen/EWIEGA46WW/moc_mojbroj.cpp
FN:109,_ZN7Mojbroj18qt_static_metacallEP7QObjectN11QMetaObject4CallEiPPv
FNDA:44,_ZN7Mojbroj18qt_static_metacallEP7QObjectN11QMetaObject4CallEiPPv
FN:167,_ZNK7Mojbroj10metaObjectEv
FNDA:3524,_ZNK7Mojbroj10metaObjectEv
FN:172,_ZN7Mojbroj11qt_metacastEPKc
FNDA:1636,_ZN7Mojbroj11qt_metacastEPKc
FN:180,_ZN7Mojbroj11qt_metacallEN11QMetaObject4CallEiPPv
FNDA:20,_ZN7Mojbroj11qt_metacallEN11QMetaObject4CallEiPPv
FN:198,_ZN7Mojbroj7timesUpEv
FNDA:0,_ZN7Mojbroj7timesUpEv
FN:204,_ZN7Mojbroj7gameEndEv
FNDA:0,_ZN7Mojbroj7gameEndEv
FN:210,_ZN7Mojbroj9mGameEndsEv
FNDA:2,_ZN7Mojbroj9mGameEndsEv
DA:109,44
DA:111,44
DA:112,38
DA:114,38
DA:115,0
DA:116,0
DA:117,0
DA:118,4
DA:119,0
DA:120,4
DA:121,2
DA:122,2
DA:123,0
DA:124,0
DA:125,0
DA:126,10
DA:127,16
DA:128,38
DA:130,6
DA:131,6
DA:134,6
DA:135,2
DA:136,2
DA:141,4
DA:142,2
DA:143,2
DA:148,2
DA:149,2
DA:150,2
DA:167,3524
DA:169,3524
DA:172,1636
DA:174,1636
DA:175,1636
DA:176,0
DA:177,1636
DA:180,20
DA:182,20
DA:183,20
DA:184,20
DA:185,0
DA:186,0
DA:187,0
DA:188,0
DA:189,0
DA:190,0
DA:191,0
DA:192,0
DA:194,0
DA:198,0
DA:200,0
DA:201,0
DA:204,0
DA:206,0
DA:207,0
DA:210,2
DA:212,2
DA:213,2
end_of_record
SF:/home/user/Desktop/pobedi-me-ako-znas/build/application/application_autogen/EWIEGA46WW/moc_memorija.cpp
FN:77,_ZN8Memorija18qt_static_metacallEP7QObjectN11QMetaObject4CallEiPPv
FNDA:63,_ZN8Memorija18qt_static_metacallEP7QObjectN11QMetaObject4CallEiPPv
FN:110,_ZNK8Memorija10metaObjectEv
FNDA:2523,_ZNK8Memorija10metaObjectEv
FN:115,_ZN8Memorija11qt_metacastEPKc
FNDA:2220,_ZN8Memorija11qt_metacastEPKc
FN:123,_ZN8Memorija11qt_metacallEN11QMetaObject4CallEiPPv
FNDA:8,_ZN8Memorija11qt_metacallEN11QMetaObject4CallEiPPv
FN:141,_ZN8Memorija9mGameEndsEv
FNDA:2,_ZN8Memorija9mGameEndsEv
DA:77,63
DA:79,63
DA:80,61
DA:82,61
DA:83,0
DA:84,61
DA:85,0
DA:86,61
DA:88,2
DA:89,2
DA:92,2
DA:93,2
DA:94,2
DA:110,2523
DA:112,2523
DA:115,2220
DA:117,2220
DA:118,2220
DA:119,0
DA:120,2220
DA:123,8
DA:125,8
DA:126,8
DA:127,8
DA:128,0
DA:129,0
DA:130,0
DA:131,0
DA:132,0
DA:133,0
DA:134,0
DA:135,0
DA:137,0
DA:141,2
DA:143,2
DA:144,2
end_of_record
SF:/usr/include/x86_64-linux-gnu/qt5/QtCore/qscopedpointer.h
FN:116,_ZNK14QScopedPointerI11QObjectData21QScopedPointerDeleterIS0_EEptEv
FNDA:112074,_ZNK14QScopedPointerI11QObjectData21QScopedPointerDeleterIS0_EEptEv
DA:116,112074
DA:118,112074
end_of_record
SF:/usr/include/c++/9/bits/stl_pair.h
end_of_record
SF:/usr/include/c++/9/bits/atomic_base.h
FN:99,_ZStanSt12memory_orderSt23__memory_order_modifier
FNDA:9455,_ZStanSt12memory_orderSt23__memory_order_modifier
FN:326,_ZNSt13__atomic_baseIiEmmEv
FNDA:7335,_ZNSt13__atomic_baseIiEmmEv
DA:99,9455
DA:101,9455
DA:326,7335
DA:327,7335
DA:415,9455
DA:419,9455
end_of_record
SF:/home/user/Desktop/pobedi-me-ako-znas/application/cardwidget.h
end_of_record
SF:/usr/include/x86_64-linux-gnu/qt5/QtCore/qstring.h
FN:1135,_ZN7QStringD2Ev
FNDA:6914,_ZN7QStringD2Ev
DA:1135,6914
end_of_record
SF:/home/user/Desktop/pobedi-me-ako-znas/build/application/application_autogen/EWIEGA46WW/moc_cardwidget.cpp
FN:76,_ZN10CardWidget18qt_static_metacallEP7QObjectN11QMetaObject4CallEiPPv
FNDA:80,_ZN10CardWidget18qt_static_metacallEP7QObjectN11QMetaObject4CallEiPPv
FN:109,_ZNK10CardWidget10metaObjectEv
FNDA:26640,_ZNK10CardWidget10metaObjectEv
FN:114,_ZN10CardWidget11qt_metacastEPKc
FNDA:21654,_ZN10CardWidget11qt_metacastEPKc
FN:122,_ZN10CardWidget11qt_metacallEN11QMetaObject4CallEiPPv
FNDA:0,_ZN10CardWidget11qt_metacallEN11QMetaObject4CallEiPPv
FN:140,_ZN10CardWidget7clickedEi
FNDA:40,_ZN10CardWidget7clickedEi
DA:76,80
DA:78,80
DA:79,0
DA:81,0
DA:82,0
DA:83,0
DA:84,0
DA:85,0
DA:87,80
DA:88,80
DA:91,80
DA:92,80
DA:93,80
DA:109,26640
DA:111,26640
DA:114,21654
DA:116,21654
DA:117,21654
DA:118,0
DA:119,21654
DA:122,0
DA:124,0
DA:125,0
DA:126,0
DA:127,0
DA:128,0
DA:129,0
DA:130,0
DA:131,0
DA:132,0
DA:133,0
DA:134,0
DA:136,0
DA:140,40
DA:142,40
DA:143,40
DA:144,40
end_of_record
SF:/usr/include/x86_64-linux-gnu/qt5/QtCore/qarraydata.h
FN:236,_ZN15QTypedArrayDataItE10deallocateEP10QArrayData
FNDA:4623,_ZN15QTypedArrayDataItE10deallocateEP10QArrayData
DA:236,4623
DA:239,4623
DA:240,4623
end_of_record
SF:/home/user/Desktop/pobedi-me-ako-znas/build/application/application_autogen/EWIEGA46WW/moc_koznaui.cpp
FN:132,_ZN7KoZnaui18qt_static_metacallEP7QObjectN11QMetaObject4CallEiPPv
FNDA:101,_ZN7KoZnaui18qt_static_metacallEP7QObjectN11QMetaObject4CallEiPPv
FN:203,_ZNK7KoZnaui10metaObjectEv
FNDA:8153,_ZNK7KoZnaui10metaObjectEv
FN:208,_ZN7KoZnaui11qt_metacastEPKc
FNDA:5522,_ZN7KoZnaui11qt_metacastEPKc
FN:216,_ZN7KoZnaui11qt_metacallEN11QMetaObject4CallEiPPv
FNDA:150,_ZN7KoZnaui11qt_metacallEN11QMetaObject4CallEiPPv
FN:234,_ZN7KoZnaui7timesUpEv
FNDA:12,_ZN7KoZnaui7timesUpEv
FN:240,_ZN7KoZnaui8gameEndsEv
FNDA:2,_ZN7KoZnaui8gameEndsEv
FN:246,_ZN7KoZnaui9mGameEndsEv
FNDA:2,_ZN7KoZnaui9mGameEndsEv
FN:252,_ZN7KoZnaui12podrundaEndsEv
FNDA:0,_ZN7KoZnaui12podrundaEndsEv
DA:132,101
DA:134,101
DA:135,95
DA:137,95
DA:138,0
DA:139,0
DA:140,0
DA:141,0
DA:142,0
DA:143,0
DA:144,60
DA:145,35
DA:146,0
DA:147,0
DA:148,0
DA:149,0
DA:150,0
DA:151,0
DA:152,0
DA:153,0
DA:154,0
DA:155,0
DA:156,0
DA:157,0
DA:158,95
DA:160,6
DA:161,6
DA:164,6
DA:165,2
DA:166,2
DA:171,4
DA:172,2
DA:173,2
DA:178,2
DA:179,2
DA:180,2
DA:185,0
DA:186,0
DA:187,0
DA:203,8153
DA:205,8153
DA:208,5522
DA:210,5522
DA:211,5522
DA:212,0
DA:213,5522
DA:216,150
DA:218,150
DA:219,150
DA:220,150
DA:221,0
DA:222,0
DA:223,0
DA:224,0
DA:225,0
DA:226,0
DA:227,0
DA:228,0
DA:230,0
DA:234,12
DA:236,12
DA:237,12
DA:240,2
DA:242,2
DA:243,2
DA:246,2
DA:248,2
DA:249,2
DA:252,0
DA:254,0
DA:255,0
end_of_record
SF:/usr/include/c++/9/iostream
end_of_record
SF:/home/user/Desktop/pobedi-me-ako-znas/build/application/application_autogen/EWIEGA46WW/moc_pocetniekran.cpp
FN:100,_ZN12PocetniEkran18qt_static_metacallEP7QObjectN11QMetaObject4CallEiPPv
FNDA:2,_ZN12PocetniEkran18qt_static_metacallEP7QObjectN11QMetaObject4CallEiPPv
FN:133,_ZNK12PocetniEkran10metaObjectEv
FNDA:46570,_ZNK12PocetniEkran10metaObjectEv
FN:138,_ZN12PocetniEkran11qt_metacastEPKc
FNDA:40544,_ZN12PocetniEkran11qt_metacastEPKc
FN:146,_ZN12PocetniEkran11qt_metacallEN11QMetaObject4CallEiPPv
FNDA:294,_ZN12PocetniEkran11qt_metacallEN11QMetaObject4CallEiPPv
DA:100,2
DA:102,2
DA:103,2
DA:105,2
DA:106,0
DA:107,2
DA:108,0
DA:109,0
DA:110,0
DA:111,0
DA:112,0
DA:113,0
DA:114,0
DA:115,0
DA:116,0
DA:117,2
DA:121,2
DA:133,46570
DA:135,46570
DA:138,40544
DA:140,40544
DA:141,40544
DA:142,0
DA:143,40544
DA:146,294
DA:148,294
DA:149,294
DA:150,292
DA:151,2
DA:152,2
DA:153,2
DA:154,2
DA:155,0
DA:156,0
DA:157,0
DA:158,0
DA:160,2
end_of_record
SF:/home/user/Desktop/pobedi-me-ako-znas/build/application/application_autogen/EWIEGA46WW/moc_logindialog.cpp
FN:57,_ZN11loginDialog18qt_static_metacallEP7QObjectN11QMetaObject4CallEiPPv
FNDA:0,_ZN11loginDialog18qt_static_metacallEP7QObjectN11QMetaObject4CallEiPPv
FN:75,_ZNK11loginDialog10metaObjectEv
FNDA:1180,_ZNK11loginDialog10metaObjectEv
FN:80,_ZN11loginDialog11qt_metacastEPKc
FNDA:788,_ZN11loginDialog11qt_metacastEPKc
FN:88,_ZN11loginDialog11qt_metacallEN11QMetaObject4CallEiPPv
FNDA:0,_ZN11loginDialog11qt_metacallEN11QMetaObject4CallEiPPv
DA:57,0
DA:63,0
DA:75,1180
DA:77,1180
DA:80,788
DA:82,788
DA:83,788
DA:84,0
DA:85,788
DA:88,0
DA:90,0
DA:91,0
end_of_record
SF:/usr/include/x86_64-linux-gnu/qt5/QtCore/qatomic_cxx11.h
FN:225,_ZN10QAtomicOpsIiE4loadIiEET_RKSt6atomicIS2_E
FNDA:9455,_ZN10QAtomicOpsIiE4loadIiEET_RKSt6atomicIS2_E
FN:269,_ZN10QAtomicOpsIiE5derefIiEEbRSt6atomicIT_E
FNDA:7335,_ZN10QAtomicOpsIiE5derefIiEEbRSt6atomicIT_E
DA:225,9455
DA:227,18910
DA:269,7335
DA:271,7335
end_of_record
SF:/home/user/Desktop/pobedi-me-ako-znas/build/application/application_autogen/EWIEGA46WW/moc_pogodistaui.cpp
FN:86,_ZN11PogodiStaUI18qt_static_metacallEP7QObjectN11QMetaObject4CallEiPPv
FNDA:6,_ZN11PogodiStaUI18qt_static_metacallEP7QObjectN11QMetaObject4CallEiPPv
FN:130,_ZNK11PogodiStaUI10metaObjectEv
FNDA:5536,_ZNK11PogodiStaUI10metaObjectEv
FN:135,_ZN11PogodiStaUI11qt_metacastEPKc
FNDA:3498,_ZN11PogodiStaUI11qt_metacastEPKc
FN:143,_ZN11PogodiStaUI11qt_metacallEN11QMetaObject4CallEiPPv
FNDA:42,_ZN11PogodiStaUI11qt_metacallEN11QMetaObject4CallEiPPv
FN:161,_ZN11PogodiStaUI8gameEndsEv
FNDA:4,_ZN11PogodiStaUI8gameEndsEv
FN:167,_ZN11PogodiStaUI9mGameEndsEv
FNDA:2,_ZN11PogodiStaUI9mGameEndsEv
DA:86,6
DA:88,6
DA:89,0
DA:91,0
DA:92,0
DA:93,0
DA:94,0
DA:95,0
DA:96,0
DA:97,0
DA:98,0
DA:100,6
DA:101,6
DA:104,6
DA:105,4
DA:106,4
DA:111,2
DA:112,2
DA:113,2
DA:130,5536
DA:132,5536
DA:135,3498
DA:137,3498
DA:138,3498
DA:139,0
DA:140,3498
DA:143,42
DA:145,42
DA:146,42
DA:147,42
DA:148,0
DA:149,0
DA:150,0
DA:151,0
DA:152,0
DA:153,0
DA:154,0
DA:155,0
DA:157,0
DA:161,4
DA:163,4
DA:164,4
DA:167,2
DA:169,2
DA:170,2
end_of_record
SF:/home/user/Desktop/pobedi-me-ako-znas/build/application/application_autogen/EWIEGA46WW/moc_mainwindow.cpp
FN:57,_ZN10MainWindow18qt_static_metacallEP7QObjectN11QMetaObject4CallEiPPv
FNDA:0,_ZN10MainWindow18qt_static_metacallEP7QObjectN11QMetaObject4CallEiPPv
FN:75,_ZNK10MainWindow10metaObjectEv
FNDA:0,_ZNK10MainWindow10metaObjectEv
FN:80,_ZN10MainWindow11qt_metacastEPKc
FNDA:0,_ZN10MainWindow11qt_metacastEPKc
FN:88,_ZN10MainWindow11qt_metacallEN11QMetaObject4CallEiPPv
FNDA:0,_ZN10MainWindow11qt_metacallEN11QMetaObject4CallEiPPv
DA:57,0
DA:63,0
DA:75,0
DA:77,0
DA:80,0
DA:82,0
DA:83,0
DA:84,0
DA:85,0
DA:88,0
DA:90,0
DA:91,0
end_of_record
SF:/home/user/Desktop/pobedi-me-ako-znas/build/application/application_autogen/EWIEGA46WW/moc_podrunda.cpp
FN:57,_ZN8Podrunda18qt_static_metacallEP7QObjectN11QMetaObject4CallEiPPv
FNDA:0,_ZN8Podrunda18qt_static_metacallEP7QObjectN11QMetaObject4CallEiPPv
FN:75,_ZNK8Podrunda10metaObjectEv
FNDA:0,_ZNK8Podrunda10metaObjectEv
FN:80,_ZN8Podrunda11qt_metacastEPKc
FNDA:0,_ZN8Podrunda11qt_metacastEPKc
FN:88,_ZN8Podrunda11qt_metacallEN11QMetaObject4CallEiPPv
FNDA:0,_ZN8Podrunda11qt_metacallEN11QMetaObject4CallEiPPv
DA:57,0
DA:63,0
DA:75,0
DA:77,0
DA:80,0
DA:82,0
DA:83,0
DA:84,0
DA:85,0
DA:88,0
DA:90,0
DA:91,0
end_of_record
SF:/home/user/Desktop/pobedi-me-ako-znas/application/pogodista.h
end_of_record
SF:/usr/include/c++/9/bits/move.h
FN:99,_ZSt4moveIRPN2Ui7KoZnauiEEONSt16remove_referenceIT_E4typeEOS5_
FNDA:0,_ZSt4moveIRPN2Ui7KoZnauiEEONSt16remove_referenceIT_E4typeEOS5_
DA:99,0
DA:100,0
end_of_record
TN:
SF:/home/user/Desktop/pobedi-me-ako-znas/build/application/application_autogen/EWIEGA46WW/qrc_resources.cpp
FN:101317,_Z24qInitResources_resourcesv
FNDA:2,_Z24qInitResources_resourcesv
FN:101325,_Z27qCleanupResources_resourcesv
FNDA:2,_Z27qCleanupResources_resourcesv
FN:101334,_ZN12_GLOBAL__N_111initializerC2Ev
FNDA:2,_ZN12_GLOBAL__N_111initializerC2Ev
FN:101335,_ZN12_GLOBAL__N_111initializerD2Ev
FNDA:2,_ZN12_GLOBAL__N_111initializerD2Ev
DA:101317,2
DA:101320,2
DA:101321,2
DA:101325,2
DA:101328,2
DA:101329,2
DA:101334,2
DA:101335,2
end_of_record
TN:
SF:/usr/include/x86_64-linux-gnu/qt5/QtCore/qsize.h
FN:119,_ZN5QSizeC2Eii
FNDA:0,_ZN5QSizeC2Eii
DA:119,0
end_of_record
SF:/usr/include/x86_64-linux-gnu/qt5/QtWidgets/qwidget.h
FN:838,_ZN7QWidget6resizeEii
FNDA:0,_ZN7QWidget6resizeEii
DA:838,0
DA:839,0
end_of_record
SF:/usr/include/x86_64-linux-gnu/qt5/QtCore/qatomic_cxx11.h
FN:225,_ZN10QAtomicOpsIiE4loadIiEET_RKSt6atomicIS2_E
FNDA:0,_ZN10QAtomicOpsIiE4loadIiEET_RKSt6atomicIS2_E
FN:269,_ZN10QAtomicOpsIiE5derefIiEEbRSt6atomicIT_E
FNDA:0,_ZN10QAtomicOpsIiE5derefIiEEbRSt6atomicIT_E
DA:225,0
DA:227,0
DA:269,0
DA:271,0
end_of_record
SF:/usr/include/x86_64-linux-gnu/qt5/QtCore/qarraydata.h
FN:236,_ZN15QTypedArrayDataItE10deallocateEP10QArrayData
FNDA:0,_ZN15QTypedArrayDataItE10deallocateEP10QArrayData
DA:236,0
DA:239,0
DA:240,0
end_of_record
SF:/usr/include/x86_64-linux-gnu/qt5/QtCore/qrect.h
FN:184,_ZN5QRectC2Eiiii
FNDA:0,_ZN5QRectC2Eiiii
DA:184,0
DA:185,0
end_of_record
SF:/usr/include/x86_64-linux-gnu/qt5/QtCore/qstring.h
FN:570,_ZN7QString8fromUtf8EPKci
FNDA:0,_ZN7QString8fromUtf8EPKci
FN:941,_ZNK7QString7isEmptyEv
FNDA:0,_ZNK7QString7isEmptyEv
FN:1135,_ZN7QStringD2Ev
FNDA:0,_ZN7QStringD2Ev
DA:570,0
DA:572,0
DA:941,0
DA:942,0
DA:1135,0
end_of_record
SF:/home/user/Desktop/pobedi-me-ako-znas/build/application/application_autogen/include/ui_mainwindow.h
FN:30,_ZN13Ui_MainWindow7setupUiEP11QMainWindow
FNDA:0,_ZN13Ui_MainWindow7setupUiEP11QMainWindow
FN:54,_ZN13Ui_MainWindow13retranslateUiEP11QMainWindow
FNDA:0,_ZN13Ui_MainWindow13retranslateUiEP11QMainWindow
DA:30,0
DA:32,0
DA:33,0
DA:34,0
DA:35,0
DA:36,0
DA:37,0
DA:38,0
DA:39,0
DA:40,0
DA:41,0
DA:42,0
DA:43,0
DA:44,0
DA:45,0
DA:46,0
DA:47,0
DA:49,0
DA:51,0
DA:52,0
DA:54,0
DA:56,0
DA:57,0
end_of_record
SF:/usr/include/c++/9/bits/atomic_base.h
FN:99,_ZStanSt12memory_orderSt23__memory_order_modifier
FNDA:0,_ZStanSt12memory_orderSt23__memory_order_modifier
FN:326,_ZNSt13__atomic_baseIiEmmEv
FNDA:0,_ZNSt13__atomic_baseIiEmmEv
DA:99,0
DA:101,0
DA:326,0
DA:327,0
DA:415,0
DA:419,0
end_of_record
SF:/usr/include/x86_64-linux-gnu/qt5/QtCore/qbasicatomic.h
FN:103,_ZNK19QBasicAtomicIntegerIiE4loadEv
FNDA:0,_ZNK19QBasicAtomicIntegerIiE4loadEv
FN:115,_ZN19QBasicAtomicIntegerIiE5derefEv
FNDA:0,_ZN19QBasicAtomicIntegerIiE5derefEv
DA:103,0
DA:115,0
end_of_record
SF:/home/user/Desktop/pobedi-me-ako-znas/application/mainwindow.h
end_of_record
SF:/usr/include/x86_64-linux-gnu/qt5/QtCore/qflags.h
FN:121,_ZN6QFlagsIN2Qt10WindowTypeEEC2EMNS2_7PrivateEi
FNDA:0,_ZN6QFlagsIN2Qt10WindowTypeEEC2EMNS2_7PrivateEi
DA:121,0
end_of_record
SF:/home/user/Desktop/pobedi-me-ako-znas/application/mainwindow.cpp
FN:4,_ZN10MainWindowC2EP7QWidget
FNDA:0,_ZN10MainWindowC2EP7QWidget
FN:9,_ZN10MainWindowD0Ev
FNDA:0,_ZN10MainWindowD0Ev
FN:9,_ZN10MainWindowD2Ev
FNDA:0,_ZN10MainWindowD2Ev
DA:4,0
DA:6,0
DA:7,0
DA:9,0
DA:12,0
DA:9,0
DA:11,0
DA:12,0
end_of_record
SF:/usr/include/x86_64-linux-gnu/qt5/QtCore/qrefcount.h
FN:65,_ZN9QtPrivate8RefCount5derefEv
FNDA:0,_ZN9QtPrivate8RefCount5derefEv
DA:65,0
DA:66,0
DA:68,0
DA:69,0
DA:71,0
DA:72,0
DA:73,0
end_of_record
TN:
SF:/usr/include/c++/9/iostream
end_of_record
SF:/home/user/Desktop/pobedi-me-ako-znas/application/main.cpp
FN:11,main
FNDA:2,main
DA:11,2
DA:13,4
DA:15,4
DA:16,2
DA:18,2
end_of_record
TN:
SF:/home/user/Desktop/pobedi-me-ako-znas/application/game.cpp
FN:3,_ZN4Game12onIsFinishedEv
FNDA:0,_ZN4Game12onIsFinishedEv
DA:3,0
DA:5,0
end_of_record
TN:
SF:/usr/include/x86_64-linux-gnu/qt5/QtCore/qobjectdefs_impl.h
FN:88,_ZN9QtPrivate16ApplyReturnValueIvEC2EPv
FNDA:278,_ZN9QtPrivate16ApplyReturnValueIvEC2EPv
FN:151,_ZN9QtPrivate11FunctorCallINS_11IndexesListIJEEENS_4ListIJEEEvM7InfoLogFvvEE4callES7_PS5_PPv
FNDA:0,_ZN9QtPrivate11FunctorCallINS_11IndexesListIJEEENS_4ListIJEEEvM7InfoLogFvvEE4callES7_PS5_PPv
FN:184,_ZN9QtPrivate15FunctionPointerIM7InfoLogFvvEE4callINS_4ListIJEEEvEEvS3_PS1_PPv
FNDA:0,_ZN9QtPrivate15FunctionPointerIM7InfoLogFvvEE4callINS_4ListIJEEEvEEvS3_PS1_PPv
FN:387,_ZN9QtPrivate15QSlotObjectBaseC2EPFviPS0_P7QObjectPPvPbE
FNDA:185,_ZN9QtPrivate15QSlotObjectBaseC2EPFviPS0_P7QObjectPPvPbE
FN:396,_ZN9QtPrivate15QSlotObjectBaseD2Ev
FNDA:185,_ZN9QtPrivate15QSlotObjectBaseD2Ev
FN:407,_ZN9QtPrivate11QSlotObjectIM7InfoLogFvvENS_4ListIJEEEvE4implEiPNS_15QSlotObjectBaseEP7QObjectPPvPb
FNDA:0,_ZN9QtPrivate11QSlotObjectIM7InfoLogFvvENS_4ListIJEEEvE4implEiPNS_15QSlotObjectBaseEP7QObjectPPvPb
FN:423,_ZN9QtPrivate11QSlotObjectIM7InfoLogFvvENS_4ListIJEEEvEC2ES3_
FNDA:0,_ZN9QtPrivate11QSlotObjectIM7InfoLogFvvENS_4ListIJEEEvEC2ES3_
DA:88,278
DA:151,0
DA:152,0
DA:153,0
DA:184,0
DA:185,0
DA:186,0
DA:387,185
DA:396,185
DA:407,0
DA:409,0
DA:410,0
DA:411,0
DA:412,0
DA:413,0
DA:414,0
DA:415,0
DA:416,0
DA:417,0
DA:418,0
DA:419,0
DA:421,0
DA:423,0
end_of_record
SF:/usr/include/x86_64-linux-gnu/qt5/QtCore/qbasicatomic.h
FN:103,_ZNK19QBasicAtomicIntegerIiE4loadEv
FNDA:0,_ZNK19QBasicAtomicIntegerIiE4loadEv
FN:115,_ZN19QBasicAtomicIntegerIiE5derefEv
FNDA:0,_ZN19QBasicAtomicIntegerIiE5derefEv
FN:221,_ZN19QBasicAtomicIntegerIiEC2Ei
FNDA:185,_ZN19QBasicAtomicIntegerIiEC2Ei
DA:103,0
DA:115,0
DA:221,185
end_of_record
SF:/usr/include/x86_64-linux-gnu/qt5/QtCore/qobject_impl.h
FN:75,_ZN9QtPrivate15ConnectionTypesINS_4ListIJbEEELb1EE5typesEv
FNDA:0,_ZN9QtPrivate15ConnectionTypesINS_4ListIJbEEELb1EE5typesEv
DA:75,0
end_of_record
SF:/usr/include/c++/9/bits/atomic_base.h
FN:99,_ZStanSt12memory_orderSt23__memory_order_modifier
FNDA:0,_ZStanSt12memory_orderSt23__memory_order_modifier
FN:279,_ZNSt13__atomic_baseIiEC2Ei
FNDA:185,_ZNSt13__atomic_baseIiEC2Ei
FN:326,_ZNSt13__atomic_baseIiEmmEv
FNDA:0,_ZNSt13__atomic_baseIiEmmEv
DA:99,0
DA:101,0
DA:279,185
DA:326,0
DA:327,0
DA:415,0
DA:419,0
end_of_record
SF:/home/user/Desktop/pobedi-me-ako-znas/application/infolog.h
end_of_record
SF:/usr/include/x86_64-linux-gnu/qt5/QtCore/qobject.h
FN:228,_ZN7QObject7connectIM15QAbstractButtonFvbEM7InfoLogFvvEEEN11QMetaObject10ConnectionEPKN9QtPrivate15FunctionPointerIT_E6ObjectESB_PKNSA_IT0_E6ObjectESG_N2Qt14ConnectionTypeE
FNDA:0,_ZN7QObject7connectIM15QAbstractButtonFvbEM7InfoLogFvvEEEN11QMetaObject10ConnectionEPKN9QtPrivate15FunctionPointerIT_E6ObjectESB_PKNSA_IT0_E6ObjectESG_N2Qt14ConnectionTypeE
DA:228,0
DA:246,0
DA:247,0
DA:248,0
DA:252,0
DA:254,0
end_of_record
SF:/usr/include/x86_64-linux-gnu/qt5/QtCore/qrefcount.h
FN:65,_ZN9QtPrivate8RefCount5derefEv
FNDA:0,_ZN9QtPrivate8RefCount5derefEv
DA:65,0
DA:66,0
DA:68,0
DA:69,0
DA:71,0
DA:72,0
DA:73,0
end_of_record
SF:/usr/include/x86_64-linux-gnu/qt5/QtCore/qflags.h
FN:121,_ZN6QFlagsIN2Qt13AlignmentFlagEEC2EMNS2_7PrivateEi
FNDA:288,_ZN6QFlagsIN2Qt13AlignmentFlagEEC2EMNS2_7PrivateEi
FN:121,_ZN6QFlagsIN2Qt10WindowTypeEEC2EMNS2_7PrivateEi
FNDA:0,_ZN6QFlagsIN2Qt10WindowTypeEEC2EMNS2_7PrivateEi
DA:121,288
DA:121,0
end_of_record
SF:/usr/include/x86_64-linux-gnu/qt5/QtCore/qatomic.h
FN:60,_ZN14QAtomicIntegerIiEC2Ei
FNDA:185,_ZN14QAtomicIntegerIiEC2Ei
FN:162,_ZN10QAtomicIntC2Ei
FNDA:185,_ZN10QAtomicIntC2Ei
DA:60,185
DA:162,185
end_of_record
SF:/home/user/Desktop/pobedi-me-ako-znas/build/application/application_autogen/include/ui_infolog.h
FN:34,_ZN10Ui_InfoLog7setupUiEP11QMainWindow
FNDA:0,_ZN10Ui_InfoLog7setupUiEP11QMainWindow
FN:68,_ZN10Ui_InfoLog13retranslateUiEP11QMainWindow
FNDA:0,_ZN10Ui_InfoLog13retranslateUiEP11QMainWindow
DA:34,0
DA:36,0
DA:37,0
DA:38,0
DA:39,0
DA:40,0
DA:41,0
DA:42,0
DA:43,0
DA:44,0
DA:45,0
DA:47,0
DA:49,0
DA:50,0
DA:52,0
DA:54,0
DA:55,0
DA:56,0
DA:57,0
DA:58,0
DA:59,0
DA:60,0
DA:61,0
DA:63,0
DA:65,0
DA:66,0
DA:68,0
DA:70,0
DA:71,0
DA:89,0
DA:90,0
end_of_record
SF:/usr/include/c++/9/atomic
FN:759,_ZNSt6atomicIiEC2Ei
FNDA:185,_ZNSt6atomicIiEC2Ei
DA:759,185
end_of_record
SF:/usr/include/x86_64-linux-gnu/qt5/QtWidgets/qwidget.h
FN:838,_ZN7QWidget6resizeEii
FNDA:14,_ZN7QWidget6resizeEii
DA:838,14
DA:839,14
end_of_record
SF:/usr/include/x86_64-linux-gnu/qt5/QtCore/qsize.h
FN:119,_ZN5QSizeC2Eii
FNDA:292,_ZN5QSizeC2Eii
DA:119,292
end_of_record
SF:/usr/include/x86_64-linux-gnu/qt5/QtCore/qarraydata.h
FN:236,_ZN15QTypedArrayDataItE10deallocateEP10QArrayData
FNDA:0,_ZN15QTypedArrayDataItE10deallocateEP10QArrayData
DA:236,0
DA:239,0
DA:240,0
end_of_record
SF:/usr/include/x86_64-linux-gnu/qt5/QtCore/qstring.h
FN:570,_ZN7QString8fromUtf8EPKci
FNDA:0,_ZN7QString8fromUtf8EPKci
FN:941,_ZNK7QString7isEmptyEv
FNDA:359,_ZNK7QString7isEmptyEv
FN:1135,_ZN7QStringD2Ev
FNDA:0,_ZN7QStringD2Ev
DA:570,0
DA:572,0
DA:941,359
DA:942,359
DA:1135,0
end_of_record
SF:/usr/include/x86_64-linux-gnu/qt5/QtCore/qrect.h
FN:184,_ZN5QRectC2Eiiii
FNDA:0,_ZN5QRectC2Eiiii
DA:184,0
DA:185,0
end_of_record
SF:/home/user/Desktop/pobedi-me-ako-znas/application/infolog.cpp
FN:4,_ZN7InfoLogC2EP7QWidget
FNDA:0,_ZN7InfoLogC2EP7QWidget
FN:16,_ZN7InfoLogD0Ev
FNDA:0,_ZN7InfoLogD0Ev
FN:16,_ZN7InfoLogD2Ev
FNDA:0,_ZN7InfoLogD2Ev
FN:21,_ZN7InfoLog6cancelEv
FNDA:0,_ZN7InfoLog6cancelEv
DA:4,0
DA:7,0
DA:9,0
DA:10,0
DA:11,0
DA:13,0
DA:14,0
DA:16,0
DA:19,0
DA:16,0
DA:18,0
DA:19,0
DA:21,0
DA:23,0
DA:24,0
end_of_record
SF:/usr/include/x86_64-linux-gnu/qt5/QtCore/qatomic_cxx11.h
FN:225,_ZN10QAtomicOpsIiE4loadIiEET_RKSt6atomicIS2_E
FNDA:0,_ZN10QAtomicOpsIiE4loadIiEET_RKSt6atomicIS2_E
FN:269,_ZN10QAtomicOpsIiE5derefIiEEbRSt6atomicIT_E
FNDA:0,_ZN10QAtomicOpsIiE5derefIiEEbRSt6atomicIT_E
DA:225,0
DA:227,0
DA:269,0
DA:271,0
end_of_record
SF:/usr/include/x86_64-linux-gnu/qt5/QtGui/qpalette.h
FN:195,_ZN8QPalette8setColorENS_10ColorGroupENS_9ColorRoleERK6QColor
FNDA:0,_ZN8QPalette8setColorENS_10ColorGroupENS_9ColorRoleERK6QColor
FN:198,_ZN8QPalette8setColorENS_9ColorRoleERK6QColor
FNDA:0,_ZN8QPalette8setColorENS_9ColorRoleERK6QColor
DA:195,0
DA:197,0
DA:198,0
DA:199,0
end_of_record
TN:
SF:/usr/include/x86_64-linux-gnu/qt5/QtCore/qrefcount.h
FN:65,_ZN9QtPrivate8RefCount5derefEv
FNDA:0,_ZN9QtPrivate8RefCount5derefEv
DA:65,0
DA:66,0
DA:68,0
DA:69,0
DA:71,0
DA:72,0
DA:73,0
end_of_record
SF:/usr/include/x86_64-linux-gnu/qt5/QtCore/qobject.h
FN:228,_ZN7QObject7connectIM15QAbstractButtonFvbEM7QDialogFvvEEEN11QMetaObject10ConnectionEPKN9QtPrivate15FunctionPointerIT_E6ObjectESB_PKNSA_IT0_E6ObjectESG_N2Qt14ConnectionTypeE
FNDA:4,_ZN7QObject7connectIM15QAbstractButtonFvbEM7QDialogFvvEEEN11QMetaObject10ConnectionEPKN9QtPrivate15FunctionPointerIT_E6ObjectESB_PKNSA_IT0_E6ObjectESG_N2Qt14ConnectionTypeE
DA:228,4
DA:246,4
DA:247,4
DA:248,0
DA:252,4
DA:254,4
end_of_record
SF:/usr/include/x86_64-linux-gnu/qt5/QtCore/qatomic.h
FN:60,_ZN14QAtomicIntegerIiEC2Ei
FNDA:0,_ZN14QAtomicIntegerIiEC2Ei
FN:162,_ZN10QAtomicIntC2Ei
FNDA:0,_ZN10QAtomicIntC2Ei
DA:60,0
DA:162,0
end_of_record
SF:/usr/include/x86_64-linux-gnu/qt5/QtCore/qflags.h
FN:121,_ZN6QFlagsIN2Qt13AlignmentFlagEEC2EMNS2_7PrivateEi
FNDA:0,_ZN6QFlagsIN2Qt13AlignmentFlagEEC2EMNS2_7PrivateEi
FN:121,_ZN6QFlagsIN2Qt10WindowTypeEEC2EMNS2_7PrivateEi
FNDA:0,_ZN6QFlagsIN2Qt10WindowTypeEEC2EMNS2_7PrivateEi
DA:121,0
DA:121,0
end_of_record
SF:/usr/include/x86_64-linux-gnu/qt5/QtCore/qobjectdefs_impl.h
FN:88,_ZN9QtPrivate16ApplyReturnValueIvEC2EPv
FNDA:0,_ZN9QtPrivate16ApplyReturnValueIvEC2EPv
FN:151,_ZN9QtPrivate11FunctorCallINS_11IndexesListIJEEENS_4ListIJEEEvM7QDialogFvvEE4callES7_PS5_PPv
FNDA:2,_ZN9QtPrivate11FunctorCallINS_11IndexesListIJEEENS_4ListIJEEEvM7QDialogFvvEE4callES7_PS5_PPv
FN:184,_ZN9QtPrivate15FunctionPointerIM7QDialogFvvEE4callINS_4ListIJEEEvEEvS3_PS1_PPv
FNDA:2,_ZN9QtPrivate15FunctionPointerIM7QDialogFvvEE4callINS_4ListIJEEEvEEvS3_PS1_PPv
FN:387,_ZN9QtPrivate15QSlotObjectBaseC2EPFviPS0_P7QObjectPPvPbE
FNDA:0,_ZN9QtPrivate15QSlotObjectBaseC2EPFviPS0_P7QObjectPPvPbE
FN:396,_ZN9QtPrivate15QSlotObjectBaseD2Ev
FNDA:0,_ZN9QtPrivate15QSlotObjectBaseD2Ev
FN:407,_ZN9QtPrivate11QSlotObjectIM7QDialogFvvENS_4ListIJEEEvE4implEiPNS_15QSlotObjectBaseEP7QObjectPPvPb
FNDA:6,_ZN9QtPrivate11QSlotObjectIM7QDialogFvvENS_4ListIJEEEvE4implEiPNS_15QSlotObjectBaseEP7QObjectPPvPb
FN:423,_ZN9QtPrivate11QSlotObjectIM7QDialogFvvENS_4ListIJEEEvEC2ES3_
FNDA:4,_ZN9QtPrivate11QSlotObjectIM7QDialogFvvENS_4ListIJEEEvEC2ES3_
DA:88,0
DA:151,2
DA:152,2
DA:153,2
DA:184,2
DA:185,2
DA:186,2
DA:387,0
DA:396,0
DA:407,6
DA:409,6
DA:410,4
DA:411,4
DA:412,4
DA:413,2
DA:414,2
DA:415,2
DA:416,0
DA:417,0
DA:418,0
DA:419,6
DA:421,6
DA:423,4
end_of_record
SF:/usr/include/x86_64-linux-gnu/qt5/QtCore/qbasicatomic.h
FN:103,_ZNK19QBasicAtomicIntegerIiE4loadEv
FNDA:0,_ZNK19QBasicAtomicIntegerIiE4loadEv
FN:115,_ZN19QBasicAtomicIntegerIiE5derefEv
FNDA:0,_ZN19QBasicAtomicIntegerIiE5derefEv
FN:221,_ZN19QBasicAtomicIntegerIiEC2Ei
FNDA:0,_ZN19QBasicAtomicIntegerIiEC2Ei
DA:103,0
DA:115,0
DA:221,0
end_of_record
SF:/usr/include/x86_64-linux-gnu/qt5/QtCore/qobject_impl.h
FN:75,_ZN9QtPrivate15ConnectionTypesINS_4ListIJbEEELb1EE5typesEv
FNDA:0,_ZN9QtPrivate15ConnectionTypesINS_4ListIJbEEELb1EE5typesEv
DA:75,0
end_of_record
SF:/usr/include/c++/9/bits/atomic_base.h
FN:99,_ZStanSt12memory_orderSt23__memory_order_modifier
FNDA:0,_ZStanSt12memory_orderSt23__memory_order_modifier
FN:279,_ZNSt13__atomic_baseIiEC2Ei
FNDA:0,_ZNSt13__atomic_baseIiEC2Ei
FN:326,_ZNSt13__atomic_baseIiEmmEv
FNDA:0,_ZNSt13__atomic_baseIiEmmEv
DA:99,0
DA:101,0
DA:279,0
DA:326,0
DA:327,0
DA:415,0
DA:419,0
end_of_record
SF:/usr/include/x86_64-linux-gnu/qt5/QtCore/qstring.h
FN:699,_ZN7QStringC2EPKc
FNDA:0,_ZN7QStringC2EPKc
FN:1135,_ZN7QStringD2Ev
FNDA:0,_ZN7QStringD2Ev
DA:699,0
DA:700,0
DA:701,0
DA:1135,0
end_of_record
SF:/usr/include/x86_64-linux-gnu/qt5/QtCore/qarraydata.h
FN:236,_ZN15QTypedArrayDataItE10deallocateEP10QArrayData
FNDA:0,_ZN15QTypedArrayDataItE10deallocateEP10QArrayData
DA:236,0
DA:239,0
DA:240,0
end_of_record
SF:/home/user/Desktop/pobedi-me-ako-znas/application/logindialog.h
end_of_record
SF:/home/user/Desktop/pobedi-me-ako-znas/application/logindialog.cpp
FN:4,_ZN11loginDialogC2EP7QWidget
FNDA:2,_ZN11loginDialogC2EP7QWidget
FN:19,_ZN11loginDialogD0Ev
FNDA:0,_ZN11loginDialogD0Ev
FN:19,_ZN11loginDialogD2Ev
FNDA:2,_ZN11loginDialogD2Ev
FN:26,_ZNK11loginDialog7getNameEv
FNDA:2,_ZNK11loginDialog7getNameEv
DA:4,2
DA:6,2
DA:7,2
DA:8,2
DA:10,2
DA:11,2
DA:12,2
DA:13,2
DA:15,2
DA:16,2
DA:17,2
DA:19,0
DA:24,0
DA:19,2
DA:21,2
DA:22,2
DA:23,2
DA:24,2
DA:26,2
DA:28,2
end_of_record
SF:/usr/include/x86_64-linux-gnu/qt5/QtCore/qatomic_cxx11.h
FN:225,_ZN10QAtomicOpsIiE4loadIiEET_RKSt6atomicIS2_E
FNDA:0,_ZN10QAtomicOpsIiE4loadIiEET_RKSt6atomicIS2_E
FN:269,_ZN10QAtomicOpsIiE5derefIiEEbRSt6atomicIT_E
FNDA:0,_ZN10QAtomicOpsIiE5derefIiEEbRSt6atomicIT_E
DA:225,0
DA:227,0
DA:269,0
DA:271,0
end_of_record
SF:/usr/include/c++/9/atomic
FN:759,_ZNSt6atomicIiEC2Ei
FNDA:0,_ZNSt6atomicIiEC2Ei
DA:759,0
end_of_record
TN:
SF:/usr/include/c++/9/bits/atomic_base.h
FN:99,_ZStanSt12memory_orderSt23__memory_order_modifier
FNDA:0,_ZStanSt12memory_orderSt23__memory_order_modifier
FN:318,_ZNSt13__atomic_baseIiEppEv
FNDA:730,_ZNSt13__atomic_baseIiEppEv
FN:326,_ZNSt13__atomic_baseIiEmmEv
FNDA:0,_ZNSt13__atomic_baseIiEmmEv
DA:99,0
DA:101,0
DA:318,730
DA:319,730
DA:326,0
DA:327,0
DA:415,0
DA:419,0
end_of_record
SF:/home/user/Desktop/pobedi-me-ako-znas/application/cardwidget.cpp
FN:5,_ZN10CardWidgetC2EiiP7QWidget
FNDA:80,_ZN10CardWidgetC2EiiP7QWidget
FN:13,_ZNK10CardWidget5getIdEv
FNDA:80,_ZNK10CardWidget5getIdEv
FN:18,_ZN10CardWidget4hideEv
FNDA:40,_ZN10CardWidget4hideEv
FN:24,_ZN10CardWidget6revealEv
FNDA:120,_ZN10CardWidget6revealEv
FN:30,_ZN10CardWidget15mousePressEventEP11QMouseEvent
FNDA:41,_ZN10CardWidget15mousePressEventEP11QMouseEvent
FN:41,_ZN10CardWidget10paintEventEP11QPaintEvent
FNDA:3897,_ZN10CardWidget10paintEventEP11QPaintEvent
DA:5,80
DA:7,240
DA:8,80
DA:10,80
DA:11,80
DA:13,80
DA:15,80
DA:18,40
DA:20,40
DA:21,40
DA:22,40
DA:24,120
DA:26,120
DA:27,120
DA:28,120
DA:30,41
DA:33,41
DA:35,40
DA:36,40
DA:38,41
DA:39,41
DA:41,3897
DA:43,7794
DA:45,3897
DA:47,1293
DA:51,2604
DA:52,2604
DA:55,3897
DA:56,3897
end_of_record
SF:/usr/include/x86_64-linux-gnu/qt5/QtCore/qbasicatomic.h
FN:103,_ZNK19QBasicAtomicIntegerIiE4loadEv
FNDA:0,_ZNK19QBasicAtomicIntegerIiE4loadEv
FN:114,_ZN19QBasicAtomicIntegerIiE3refEv
FNDA:730,_ZN19QBasicAtomicIntegerIiE3refEv
FN:115,_ZN19QBasicAtomicIntegerIiE5derefEv
FNDA:0,_ZN19QBasicAtomicIntegerIiE5derefEv
DA:103,0
DA:114,730
DA:115,0
end_of_record
SF:/usr/include/x86_64-linux-gnu/qt5/QtCore/qshareddata.h
FN:233,_ZN28QExplicitlySharedDataPointerI15QPlatformPixmapE4swapERS1_
FNDA:88,_ZN28QExplicitlySharedDataPointerI15QPlatformPixmapE4swapERS1_
FN:304,_Z5qSwapI15QPlatformPixmapEvR28QExplicitlySharedDataPointerIT_ES4_
FNDA:88,_Z5qSwapI15QPlatformPixmapEvR28QExplicitlySharedDataPointerIT_ES4_
DA:233,88
DA:234,88
DA:304,88
DA:305,88
end_of_record
SF:/usr/include/x86_64-linux-gnu/qt5/QtCore/qflags.h
FN:120,_ZN6QFlagsIN2Qt19ImageConversionFlagEEC2ES1_
FNDA:96,_ZN6QFlagsIN2Qt19ImageConversionFlagEEC2ES1_
FN:121,_ZN6QFlagsIN2Qt10WindowTypeEEC2EMNS2_7PrivateEi
FNDA:192,_ZN6QFlagsIN2Qt10WindowTypeEEC2EMNS2_7PrivateEi
DA:120,96
DA:121,192
end_of_record
SF:/usr/include/x86_64-linux-gnu/qt5/QtCore/qrefcount.h
FN:54,_ZN9QtPrivate8RefCount3refEv
FNDA:734,_ZN9QtPrivate8RefCount3refEv
FN:65,_ZN9QtPrivate8RefCount5derefEv
FNDA:0,_ZN9QtPrivate8RefCount5derefEv
DA:54,734
DA:55,734
DA:57,734
DA:58,0
DA:60,734
DA:61,730
DA:62,734
DA:65,0
DA:66,0
DA:68,0
DA:69,0
DA:71,0
DA:72,0
DA:73,0
end_of_record
SF:/usr/include/c++/9/bits/move.h
FN:99,_ZSt4moveIRP15QPlatformPixmapEONSt16remove_referenceIT_E4typeEOS4_
FNDA:264,_ZSt4moveIRP15QPlatformPixmapEONSt16remove_referenceIT_E4typeEOS4_
FN:182,_ZSt4swapIP15QPlatformPixmapENSt9enable_ifIXsrSt6__and_IJSt6__not_ISt15__is_tuple_likeIT_EESt21is_move_constructibleIS6_ESt18is_move_assignableIS6_EEE5valueEvE4typeERS6_SG_
FNDA:88,_ZSt4swapIP15QPlatformPixmapENSt9enable_ifIXsrSt6__and_IJSt6__not_ISt15__is_tuple_likeIT_EESt21is_move_constructibleIS6_ESt18is_move_assignableIS6_EEE5valueEvE4typeERS6_SG_
DA:99,264
DA:100,264
DA:182,88
DA:193,88
DA:194,88
DA:195,88
DA:196,88
end_of_record
SF:/usr/include/x86_64-linux-gnu/qt5/QtWidgets/qwidget.h
FN:853,_ZNK7QWidget5widthEv
FNDA:3897,_ZNK7QWidget5widthEv
FN:856,_ZNK7QWidget6heightEv
FNDA:3897,_ZNK7QWidget6heightEv
DA:853,3897
DA:854,3897
DA:856,3897
DA:857,3897
end_of_record
SF:/usr/include/x86_64-linux-gnu/qt5/QtCore/qglobal.h
FN:911,_Z5qSwapIP15QPlatformPixmapEvRT_S3_
FNDA:88,_Z5qSwapIP15QPlatformPixmapEvRT_S3_
DA:911,88
DA:915,88
DA:916,88
end_of_record
SF:/usr/include/x86_64-linux-gnu/qt5/QtGui/qpixmap.h
FN:77,_ZN7QPixmapaSEOS_
FNDA:88,_ZN7QPixmapaSEOS_
DA:77,88
DA:78,88
end_of_record
SF:/usr/include/x86_64-linux-gnu/qt5/QtCore/qatomic_cxx11.h
FN:225,_ZN10QAtomicOpsIiE4loadIiEET_RKSt6atomicIS2_E
FNDA:0,_ZN10QAtomicOpsIiE4loadIiEET_RKSt6atomicIS2_E
FN:263,_ZN10QAtomicOpsIiE3refIiEEbRSt6atomicIT_E
FNDA:730,_ZN10QAtomicOpsIiE3refIiEEbRSt6atomicIT_E
FN:269,_ZN10QAtomicOpsIiE5derefIiEEbRSt6atomicIT_E
FNDA:0,_ZN10QAtomicOpsIiE5derefIiEEbRSt6atomicIT_E
DA:225,0
DA:227,0
DA:263,730
DA:265,730
DA:269,0
DA:271,0
end_of_record
SF:/usr/include/x86_64-linux-gnu/qt5/QtGui/qpainter.h
FN:718,_ZN8QPainter8fillRectEiiiiRK6QColor
FNDA:2604,_ZN8QPainter8fillRectEiiiiRK6QColor
FN:808,_ZN8QPainter10drawPixmapEiiiiRK7QPixmap
FNDA:1293,_ZN8QPainter10drawPixmapEiiiiRK7QPixmap
DA:718,2604
DA:720,2604
DA:721,2604
DA:808,1293
DA:810,1293
DA:811,1293
end_of_record
SF:/usr/include/x86_64-linux-gnu/qt5/QtCore/qrect.h
FN:184,_ZN5QRectC2Eiiii
FNDA:16706,_ZN5QRectC2Eiiii
FN:265,_ZNK5QRect5widthEv
FNDA:3929,_ZNK5QRect5widthEv
FN:268,_ZNK5QRect6heightEv
FNDA:3929,_ZNK5QRect6heightEv
FN:514,_ZN6QRectFC2Ev
FNDA:1293,_ZN6QRectFC2Ev
FN:644,_ZN6QRectFC2Edddd
FNDA:1293,_ZN6QRectFC2Edddd
DA:184,16706
DA:185,16706
DA:265,3929
DA:266,3929
DA:268,3929
DA:269,3929
DA:514,1293
DA:644,1293
DA:645,1293
DA:647,1293
end_of_record
SF:/usr/include/x86_64-linux-gnu/qt5/QtGui/qcolor.h
FN:79,_ZN6QColorC2EPKc
FNDA:2604,_ZN6QColorC2EPKc
FN:289,_ZN6QColorC2E13QLatin1String
FNDA:2604,_ZN6QColorC2E13QLatin1String
DA:79,2604
DA:289,2604
DA:290,2604
end_of_record
SF:/usr/include/x86_64-linux-gnu/qt5/QtCore/qstring.h
FN:95,_ZN13QLatin1StringC2EPKc
FNDA:2604,_ZN13QLatin1StringC2EPKc
FN:483,_ZN7QStringpLERKS_
FNDA:312,_ZN7QStringpLERKS_
FN:570,_ZN7QString8fromUtf8EPKci
FNDA:1259,_ZN7QString8fromUtf8EPKci
FN:957,_ZN7QStringC2ERKS_
FNDA:658,_ZN7QStringC2ERKS_
FN:1135,_ZN7QStringD2Ev
FNDA:0,_ZN7QStringD2Ev
FN:1356,_ZplRK7QStringPKc
FNDA:150,_ZplRK7QStringPKc
FN:1358,_ZplPKcRK7QString
FNDA:145,_ZplPKcRK7QString
DA:95,2604
DA:483,312
DA:570,1259
DA:572,1259
DA:957,658
DA:958,658
DA:1135,0
DA:1356,150
DA:1357,150
DA:1358,145
DA:1359,145
end_of_record
SF:/usr/include/x86_64-linux-gnu/qt5/QtCore/qarraydata.h
FN:236,_ZN15QTypedArrayDataItE10deallocateEP10QArrayData
FNDA:0,_ZN15QTypedArrayDataItE10deallocateEP10QArrayData
DA:236,0
DA:239,0
DA:240,0
end_of_record
TN:
SF:/usr/include/x86_64-linux-gnu/qt5/QtCore/qchar.h
FN:82,_ZN5QCharC2Et
FNDA:358,_ZN5QCharC2Et
FN:86,_ZN5QCharC2Ei
FNDA:0,_ZN5QCharC2Ei
FN:600,_Zeq5QCharS_
FNDA:0,_Zeq5QCharS_
DA:82,358
DA:86,0
DA:600,0
end_of_record
SF:/usr/include/x86_64-linux-gnu/qt5/QtCore/qarraydata.h
FN:57,_ZN10QArrayData4dataEv
FNDA:0,_ZN10QArrayData4dataEv
FN:123,_ZN10QArrayData10sharedNullEv
FNDA:0,_ZN10QArrayData10sharedNullEv
FN:208,_ZN15QTypedArrayDataItE4dataEv
FNDA:0,_ZN15QTypedArrayDataItE4dataEv
FN:208,_ZN15QTypedArrayDataIcE4dataEv
FNDA:0,_ZN15QTypedArrayDataIcE4dataEv
FN:236,_ZN15QTypedArrayDataItE10deallocateEP10QArrayData
FNDA:0,_ZN15QTypedArrayDataItE10deallocateEP10QArrayData
FN:236,_ZN15QTypedArrayDataIcE10deallocateEP10QArrayData
FNDA:0,_ZN15QTypedArrayDataIcE10deallocateEP10QArrayData
FN:257,_ZN15QTypedArrayDataItE10sharedNullEv
FNDA:0,_ZN15QTypedArrayDataItE10sharedNullEv
DA:57,0
DA:61,0
DA:123,0
DA:208,0
DA:208,0
DA:236,0
DA:239,0
DA:240,0
DA:236,0
DA:239,0
DA:240,0
DA:257,0
DA:260,0
end_of_record
SF:/usr/include/x86_64-linux-gnu/qt5/QtCore/qstringlist.h
FN:69,_ZN19QListSpecialMethodsI7QStringED2Ev
FNDA:0,_ZN19QListSpecialMethodsI7QStringED2Ev
DA:69,0
end_of_record
SF:/usr/include/x86_64-linux-gnu/qt5/QtGui/qcolor.h
FN:286,_ZN6QColorC2Eiiii
FNDA:0,_ZN6QColorC2Eiiii
DA:286,0
DA:287,0
end_of_record
SF:/usr/include/x86_64-linux-gnu/qt5/QtCore/qbytearray.h
FN:76,_Z8qstrnlenPKcj
FNDA:0,_Z8qstrnlenPKcj
FN:476,_ZN10QByteArrayD2Ev
FNDA:0,_ZN10QByteArrayD2Ev
FN:477,_ZNK10QByteArray4sizeEv
FNDA:0,_ZNK10QByteArray4sizeEv
FN:497,_ZNK10QByteArray4dataEv
FNDA:0,_ZNK10QByteArray4dataEv
FN:499,_ZNK10QByteArray9constDataEv
FNDA:0,_ZNK10QByteArray9constDataEv
FN:505,_ZN10QByteArrayC2ERKS_
FNDA:0,_ZN10QByteArrayC2ERKS_
FN:590,_ZN10QByteArraypLEPKc
FNDA:0,_ZN10QByteArraypLEPKc
FN:592,_ZN10QByteArraypLERKS_
FNDA:0,_ZN10QByteArraypLERKS_
FN:659,_ZplRK10QByteArrayPKc
FNDA:0,_ZplRK10QByteArrayPKc
FN:663,_ZplPKcRK10QByteArray
FNDA:0,_ZplPKcRK10QByteArray
DA:76,0
DA:78,0
DA:79,0
DA:80,0
DA:81,0
DA:83,0
DA:476,0
DA:477,0
DA:478,0
DA:497,0
DA:498,0
DA:499,0
DA:500,0
DA:505,0
DA:506,0
DA:590,0
DA:591,0
DA:592,0
DA:593,0
DA:659,0
DA:660,0
DA:663,0
DA:664,0
end_of_record
SF:/usr/include/x86_64-linux-gnu/qt5/QtCore/qrect.h
FN:184,_ZN5QRectC2Eiiii
FNDA:0,_ZN5QRectC2Eiiii
FN:265,_ZNK5QRect5widthEv
FNDA:0,_ZNK5QRect5widthEv
FN:268,_ZNK5QRect6heightEv
FNDA:0,_ZNK5QRect6heightEv
FN:271,_ZNK5QRect4sizeEv
FNDA:0,_ZNK5QRect4sizeEv
DA:184,0
DA:185,0
DA:265,0
DA:266,0
DA:268,0
DA:269,0
DA:271,0
DA:272,0
end_of_record
SF:/usr/include/x86_64-linux-gnu/qt5/QtCore/qtimer.h
FN:108,_ZN6QTimer10singleShotIiM7ReckoUIFvvEEEvT_PKN9QtPrivate15FunctionPointerIT0_E6ObjectES7_
FNDA:5,_ZN6QTimer10singleShotIiM7ReckoUIFvvEEEvT_PKN9QtPrivate15FunctionPointerIT0_E6ObjectES7_
FN:113,_ZN6QTimer10singleShotIiM7ReckoUIFvvEEEvT_N2Qt9TimerTypeEPKN9QtPrivate15FunctionPointerIT0_E6ObjectES9_
FNDA:5,_ZN6QTimer10singleShotIiM7ReckoUIFvvEEEvT_N2Qt9TimerTypeEPKN9QtPrivate15FunctionPointerIT0_E6ObjectES9_
FN:221,_ZN6QTimer14defaultTypeForEi
FNDA:0,_ZN6QTimer14defaultTypeForEi
DA:108,5
DA:110,5
DA:111,5
DA:113,5
DA:122,5
DA:123,5
DA:124,5
DA:221,0
DA:222,0
end_of_record
SF:/usr/include/x86_64-linux-gnu/qt5/QtCore/qstring.h
FN:239,_ZNK7QString4sizeEv
FNDA:0,_ZNK7QString4sizeEv
FN:270,_ZNK7QString5frontEv
FNDA:134,_ZNK7QString5frontEv
FN:430,_ZNKR7QString7toUpperEv
FNDA:9,_ZNKR7QString7toUpperEv
FN:438,_ZNKR7QString7trimmedEv
FNDA:9,_ZNKR7QString7trimmedEv
FN:549,_ZNKR7QString6toUtf8Ev
FNDA:0,_ZNKR7QString6toUtf8Ev
FN:570,_ZN7QString8fromUtf8EPKci
FNDA:0,_ZN7QString8fromUtf8EPKci
FN:580,_ZN7QString8fromUtf8ERK10QByteArray
FNDA:0,_ZN7QString8fromUtf8ERK10QByteArray
FN:699,_ZN7QStringC2EPKc
FNDA:0,_ZN7QStringC2EPKc
FN:702,_ZN7QStringC2ERK10QByteArray
FNDA:0,_ZN7QStringC2ERK10QByteArray
FN:933,_ZNK7QString6lengthEv
FNDA:0,_ZNK7QString6lengthEv
FN:935,_ZNK7QString2atEi
FNDA:358,_ZNK7QString2atEi
FN:941,_ZNK7QString7isEmptyEv
FNDA:0,_ZNK7QString7isEmptyEv
FN:949,_ZNK7QString9constDataEv
FNDA:0,_ZNK7QString9constDataEv
FN:957,_ZN7QStringC2ERKS_
FNDA:0,_ZN7QStringC2ERKS_
FN:1134,_ZN7QStringC2Ev
FNDA:0,_ZN7QStringC2Ev
FN:1135,_ZN7QStringD2Ev
FNDA:0,_ZN7QStringD2Ev
FN:1184,_ZNK7QString8containsERKS_N2Qt15CaseSensitivityE
FNDA:0,_ZNK7QString8containsERKS_N2Qt15CaseSensitivityE
FN:1239,_ZNK7QStringneEPKc
FNDA:16,_ZNK7QStringneEPKc
FN:1681,_Zeq5QCharRK7QString
FNDA:134,_Zeq5QCharRK7QString
DA:239,0
DA:270,134
DA:430,9
DA:431,9
DA:438,9
DA:439,9
DA:549,0
DA:550,0
DA:570,0
DA:572,0
DA:580,0
DA:581,0
DA:699,0
DA:700,0
DA:701,0
DA:702,0
DA:703,0
DA:704,0
DA:933,0
DA:934,0
DA:935,358
DA:936,358
DA:941,0
DA:942,0
DA:949,0
DA:950,0
DA:957,0
DA:958,0
DA:1134,0
DA:1135,0
DA:1184,0
DA:1185,0
DA:1239,16
DA:1240,16
DA:1681,134
DA:1682,134
end_of_record
SF:/usr/include/x86_64-linux-gnu/qt5/QtGui/qfont.h
FN:341,_ZN5QFont7setBoldEb
FNDA:0,_ZN5QFont7setBoldEb
DA:341,0
DA:342,0
end_of_record
SF:/usr/include/x86_64-linux-gnu/qt5/QtGui/qpalette.h
FN:200,_ZN8QPalette8setBrushENS_9ColorRoleERK6QBrush
FNDA:0,_ZN8QPalette8setBrushENS_9ColorRoleERK6QBrush
DA:200,0
DA:201,0
end_of_record
SF:/usr/include/x86_64-linux-gnu/qt5/QtCore/qatomic_cxx11.h
FN:225,_ZN10QAtomicOpsIiE4loadIiEET_RKSt6atomicIS2_E
FNDA:0,_ZN10QAtomicOpsIiE4loadIiEET_RKSt6atomicIS2_E
FN:263,_ZN10QAtomicOpsIiE3refIiEEbRSt6atomicIT_E
FNDA:0,_ZN10QAtomicOpsIiE3refIiEEbRSt6atomicIT_E
FN:269,_ZN10QAtomicOpsIiE5derefIiEEbRSt6atomicIT_E
FNDA:0,_ZN10QAtomicOpsIiE5derefIiEEbRSt6atomicIT_E
DA:225,0
DA:227,0
DA:263,0
DA:265,0
DA:269,0
DA:271,0
end_of_record
SF:/usr/include/c++/9/new
FN:173,_ZnwmPv
FNDA:0,_ZnwmPv
DA:173,0
DA:174,0
end_of_record
SF:/usr/include/x86_64-linux-gnu/qt5/QtWidgets/qwidget.h
FN:787,_ZN7QWidget14setMinimumSizeERK5QSize
FNDA:0,_ZN7QWidget14setMinimumSizeERK5QSize
FN:790,_ZN7QWidget14setMaximumSizeERK5QSize
FNDA:0,_ZN7QWidget14setMaximumSizeERK5QSize
FN:838,_ZN7QWidget6resizeEii
FNDA:0,_ZN7QWidget6resizeEii
FN:850,_ZNK7QWidget4sizeEv
FNDA:0,_ZNK7QWidget4sizeEv
DA:787,0
DA:788,0
DA:790,0
DA:791,0
DA:838,0
DA:839,0
DA:850,0
DA:851,0
end_of_record
SF:/usr/include/c++/9/atomic
FN:759,_ZNSt6atomicIiEC2Ei
FNDA:0,_ZNSt6atomicIiEC2Ei
DA:759,0
end_of_record
SF:/usr/include/x86_64-linux-gnu/qt5/QtCore/qsize.h
FN:119,_ZN5QSizeC2Eii
FNDA:0,_ZN5QSizeC2Eii
FN:130,_ZNK5QSize5widthEv
FNDA:0,_ZNK5QSize5widthEv
FN:133,_ZNK5QSize6heightEv
FNDA:0,_ZNK5QSize6heightEv
DA:119,0
DA:130,0
DA:131,0
DA:133,0
DA:134,0
end_of_record
SF:/usr/include/x86_64-linux-gnu/qt5/QtCore/qiodevice.h
FN:136,_ZN9QIODevice5writeERK10QByteArray
FNDA:0,_ZN9QIODevice5writeERK10QByteArray
DA:136,0
DA:137,0
end_of_record
SF:/usr/include/x86_64-linux-gnu/qt5/QtCore/qdebug.h
FN:125,_ZN6QDebug10maybeSpaceEv
FNDA:0,_ZN6QDebug10maybeSpaceEv
FN:137,_ZN6QDebuglsEb
FNDA:0,_ZN6QDebuglsEb
FN:145,_ZN6QDebuglsEi
FNDA:0,_ZN6QDebuglsEi
FN:153,_ZN6QDebuglsEPKc
FNDA:0,_ZN6QDebuglsEPKc
FN:155,_ZN6QDebuglsERK7QString
FNDA:0,_ZN6QDebuglsERK7QString
FN:165,_ZN6QDebuglsEPFR11QTextStreamS1_E
FNDA:0,_ZN6QDebuglsEPFR11QTextStreamS1_E
DA:125,0
DA:137,0
DA:145,0
DA:153,0
DA:155,0
DA:165,0
DA:166,0
DA:167,0
end_of_record
SF:/usr/include/x86_64-linux-gnu/qt5/QtCore/qtextstream.h
FN:230,_ZlsR11QTextStreamPFS0_S0_E
FNDA:0,_ZlsR11QTextStreamPFS0_S0_E
DA:230,0
DA:231,0
end_of_record
SF:/usr/include/x86_64-linux-gnu/qt5/QtCore/qlogging.h
FN:68,_ZN18QMessageLogContextC2EPKciS1_S1_
FNDA:0,_ZN18QMessageLogContextC2EPKciS1_S1_
FN:91,_ZN14QMessageLoggerC2EPKciS1_
FNDA:0,_ZN14QMessageLoggerC2EPKciS1_
DA:68,0
DA:69,0
DA:91,0
DA:92,0
end_of_record
SF:/home/user/Desktop/pobedi-me-ako-znas/build/application/application_autogen/include/ui_reckoui.h
FN:92,_ZN10Ui_ReckoUI7setupUiEP11QMainWindow
FNDA:2,_ZN10Ui_ReckoUI7setupUiEP11QMainWindow
FN:565,_ZN10Ui_ReckoUI13retranslateUiEP11QMainWindow
FNDA:2,_ZN10Ui_ReckoUI13retranslateUiEP11QMainWindow
DA:92,2
DA:94,2
DA:95,2
DA:96,2
DA:97,2
DA:98,2
DA:99,2
DA:100,2
DA:101,2
DA:102,2
DA:103,2
DA:104,2
DA:105,2
DA:106,2
DA:107,2
DA:108,2
DA:109,2
DA:110,2
DA:111,2
DA:112,2
DA:113,2
DA:114,2
DA:115,2
DA:116,2
DA:117,2
DA:119,2
DA:121,2
DA:122,2
DA:123,2
DA:124,2
DA:125,2
DA:126,2
DA:128,2
DA:130,2
DA:131,2
DA:132,2
DA:133,2
DA:134,2
DA:135,2
DA:137,2
DA:139,2
DA:140,2
DA:141,2
DA:142,2
DA:143,2
DA:144,2
DA:146,2
DA:148,2
DA:149,2
DA:150,2
DA:151,2
DA:152,2
DA:153,2
DA:155,2
DA:158,2
DA:160,2
DA:161,2
DA:162,2
DA:164,2
DA:167,2
DA:169,2
DA:170,2
DA:171,2
DA:172,2
DA:173,2
DA:174,2
DA:175,2
DA:176,2
DA:177,2
DA:178,2
DA:179,2
DA:181,2
DA:183,2
DA:184,2
DA:185,2
DA:186,2
DA:187,2
DA:188,2
DA:190,2
DA:192,2
DA:193,2
DA:194,2
DA:195,2
DA:196,2
DA:197,2
DA:199,2
DA:201,2
DA:202,2
DA:203,2
DA:204,2
DA:205,2
DA:206,2
DA:208,2
DA:210,2
DA:211,2
DA:212,2
DA:213,2
DA:214,2
DA:215,2
DA:217,2
DA:220,2
DA:222,2
DA:223,2
DA:224,2
DA:226,2
DA:229,2
DA:231,2
DA:232,2
DA:233,2
DA:234,2
DA:235,2
DA:236,2
DA:237,2
DA:238,2
DA:239,2
DA:240,2
DA:241,2
DA:243,2
DA:245,2
DA:246,2
DA:247,2
DA:248,2
DA:249,2
DA:250,2
DA:252,2
DA:254,2
DA:255,2
DA:256,2
DA:257,2
DA:258,2
DA:259,2
DA:261,2
DA:263,2
DA:264,2
DA:265,2
DA:266,2
DA:267,2
DA:268,2
DA:270,2
DA:272,2
DA:273,2
DA:274,2
DA:275,2
DA:276,2
DA:277,2
DA:279,2
DA:282,2
DA:284,2
DA:285,2
DA:286,2
DA:288,2
DA:291,2
DA:293,2
DA:294,2
DA:295,2
DA:296,2
DA:297,2
DA:298,2
DA:299,2
DA:300,2
DA:301,2
DA:302,2
DA:303,2
DA:305,2
DA:307,2
DA:308,2
DA:309,2
DA:310,2
DA:311,2
DA:312,2
DA:314,2
DA:316,2
DA:317,2
DA:318,2
DA:319,2
DA:320,2
DA:321,2
DA:323,2
DA:325,2
DA:326,2
DA:327,2
DA:328,2
DA:329,2
DA:330,2
DA:332,2
DA:334,2
DA:335,2
DA:336,2
DA:337,2
DA:338,2
DA:339,2
DA:341,2
DA:344,2
DA:346,2
DA:347,2
DA:348,2
DA:350,2
DA:353,2
DA:355,2
DA:356,2
DA:357,2
DA:358,2
DA:359,2
DA:360,2
DA:361,2
DA:362,2
DA:363,2
DA:364,2
DA:365,2
DA:367,2
DA:369,2
DA:370,2
DA:371,2
DA:372,2
DA:373,2
DA:374,2
DA:376,2
DA:378,2
DA:379,2
DA:380,2
DA:381,2
DA:382,2
DA:383,2
DA:385,2
DA:387,2
DA:388,2
DA:389,2
DA:390,2
DA:391,2
DA:392,2
DA:394,2
DA:396,2
DA:397,2
DA:398,2
DA:399,2
DA:400,2
DA:401,2
DA:403,2
DA:406,2
DA:408,2
DA:409,2
DA:410,2
DA:412,2
DA:415,2
DA:417,2
DA:418,2
DA:419,2
DA:420,2
DA:421,2
DA:422,2
DA:423,2
DA:424,2
DA:425,2
DA:426,2
DA:427,2
DA:428,2
DA:430,2
DA:432,2
DA:433,2
DA:434,2
DA:435,2
DA:436,2
DA:437,2
DA:439,2
DA:441,2
DA:442,2
DA:443,2
DA:444,2
DA:445,2
DA:446,2
DA:448,2
DA:450,2
DA:451,2
DA:452,2
DA:453,2
DA:454,2
DA:455,2
DA:457,2
DA:459,2
DA:460,2
DA:461,2
DA:462,2
DA:463,2
DA:464,2
DA:466,2
DA:468,2
DA:469,2
DA:470,2
DA:471,2
DA:472,2
DA:473,2
DA:474,2
DA:475,2
DA:476,4
DA:477,2
DA:478,2
DA:479,2
DA:480,2
DA:482,2
DA:483,2
DA:485,2
DA:487,2
DA:488,2
DA:490,2
DA:492,2
DA:493,2
DA:494,2
DA:495,4
DA:496,4
DA:497,2
DA:498,2
DA:499,4
DA:500,2
DA:501,2
DA:502,2
DA:503,4
DA:504,2
DA:506,2
DA:508,2
DA:509,2
DA:510,2
DA:512,2
DA:514,2
DA:515,2
DA:516,2
DA:518,2
DA:520,2
DA:521,4
DA:522,2
DA:523,2
DA:524,2
DA:525,2
DA:526,2
DA:527,2
DA:528,2
DA:529,2
DA:530,2
DA:531,2
DA:532,2
DA:533,2
DA:534,2
DA:535,2
DA:536,2
DA:537,2
DA:538,2
DA:539,2
DA:541,2
DA:542,2
DA:544,2
DA:546,2
DA:547,2
DA:549,2
DA:551,2
DA:552,2
DA:553,2
DA:554,2
DA:555,2
DA:556,2
DA:557,2
DA:558,2
DA:560,2
DA:562,2
DA:563,2
DA:565,2
DA:567,2
DA:568,2
DA:569,2
DA:570,2
DA:571,2
DA:572,2
DA:573,2
DA:574,2
end_of_record
SF:/usr/include/x86_64-linux-gnu/qt5/QtCore/qrefcount.h
FN:54,_ZN9QtPrivate8RefCount3refEv
FNDA:0,_ZN9QtPrivate8RefCount3refEv
FN:65,_ZN9QtPrivate8RefCount5derefEv
FNDA:0,_ZN9QtPrivate8RefCount5derefEv
FN:99,_ZNK9QtPrivate8RefCount8isSharedEv
FNDA:0,_ZNK9QtPrivate8RefCount8isSharedEv
DA:54,0
DA:55,0
DA:57,0
DA:58,0
DA:60,0
DA:61,0
DA:62,0
DA:65,0
DA:66,0
DA:68,0
DA:69,0
DA:71,0
DA:72,0
DA:73,0
DA:99,0
DA:101,0
DA:102,0
end_of_record
SF:/usr/include/x86_64-linux-gnu/qt5/QtCore/qobject.h
FN:228,_ZN7QObject7connectIM7ReckoUIFvvES3_EEN11QMetaObject10ConnectionEPKN9QtPrivate15FunctionPointerIT_E6ObjectES8_PKNS7_IT0_E6ObjectESD_N2Qt14ConnectionTypeE
FNDA:3,_ZN7QObject7connectIM7ReckoUIFvvES3_EEN11QMetaObject10ConnectionEPKN9QtPrivate15FunctionPointerIT_E6ObjectES8_PKNS7_IT0_E6ObjectESD_N2Qt14ConnectionTypeE
FN:228,_ZN7QObject7connectIM15QAbstractButtonFvbEM7ReckoUIFvvEEEN11QMetaObject10ConnectionEPKN9QtPrivate15FunctionPointerIT_E6ObjectESB_PKNSA_IT0_E6ObjectESG_N2Qt14ConnectionTypeE
FNDA:15,_ZN7QObject7connectIM15QAbstractButtonFvbEM7ReckoUIFvvEEEN11QMetaObject10ConnectionEPKN9QtPrivate15FunctionPointerIT_E6ObjectESB_PKNSA_IT0_E6ObjectESG_N2Qt14ConnectionTypeE
FN:353,_ZN7QObject10disconnectIM7ReckoUIFvvES3_EEbPKN9QtPrivate15FunctionPointerIT_E6ObjectES6_PKNS5_IT0_E6ObjectESB_
FNDA:3,_ZN7QObject10disconnectIM7ReckoUIFvvES3_EEbPKN9QtPrivate15FunctionPointerIT_E6ObjectES6_PKNS5_IT0_E6ObjectESB_
FN:353,_ZN7QObject10disconnectIM15QAbstractButtonFvbEM7ReckoUIFvvEEEbPKN9QtPrivate15FunctionPointerIT_E6ObjectES9_PKNS8_IT0_E6ObjectESE_
FNDA:15,_ZN7QObject10disconnectIM15QAbstractButtonFvbEM7ReckoUIFvvEEEbPKN9QtPrivate15FunctionPointerIT_E6ObjectES9_PKNS8_IT0_E6ObjectESE_
FN:499,_Z12qobject_castIP11QPushButtonET_P7QObject
FNDA:0,_Z12qobject_castIP11QPushButtonET_P7QObject
FN:499,_Z12qobject_castIP9QLineEditET_P7QObject
FNDA:585,_Z12qobject_castIP9QLineEditET_P7QObject
FN:499,_Z12qobject_castIP11QHBoxLayoutET_P7QObject
FNDA:117,_Z12qobject_castIP11QHBoxLayoutET_P7QObject
DA:228,3
DA:246,3
DA:247,3
DA:248,0
DA:252,3
DA:254,3
DA:228,15
DA:246,15
DA:247,15
DA:248,0
DA:252,15
DA:254,15
DA:353,3
DA:366,3
DA:367,3
DA:353,15
DA:366,15
DA:367,15
DA:499,0
DA:504,0
DA:499,585
DA:504,585
DA:499,117
DA:504,117
end_of_record
SF:/home/user/Desktop/pobedi-me-ako-znas/application/recko.h
end_of_record
SF:/usr/include/x86_64-linux-gnu/qt5/QtCore/qflags.h
FN:120,_ZN6QFlagsIN2Qt19ImageConversionFlagEEC2ES1_
FNDA:0,_ZN6QFlagsIN2Qt19ImageConversionFlagEEC2ES1_
FN:120,_ZN6QFlagsIN2Qt13AlignmentFlagEEC2ES1_
FNDA:0,_ZN6QFlagsIN2Qt13AlignmentFlagEEC2ES1_
FN:121,_ZN6QFlagsIN2Qt13AlignmentFlagEEC2EMNS2_7PrivateEi
FNDA:0,_ZN6QFlagsIN2Qt13AlignmentFlagEEC2EMNS2_7PrivateEi
FN:121,_ZN6QFlagsIN2Qt10WindowTypeEEC2EMNS2_7PrivateEi
FNDA:0,_ZN6QFlagsIN2Qt10WindowTypeEEC2EMNS2_7PrivateEi
DA:120,0
DA:120,0
DA:121,0
DA:121,0
end_of_record
SF:/usr/include/x86_64-linux-gnu/qt5/QtCore/qlist.h
FN:100,_ZN9QListData7disposeEv
FNDA:0,_ZN9QListData7disposeEv
FN:116,_ZNK9QListData5beginEv
FNDA:0,_ZNK9QListData5beginEv
FN:117,_ZNK9QListData3endEv
FNDA:0,_ZNK9QListData3endEv
FN:142,_ZN5QListI7QStringE4Node1tEv
FNDA:0,_ZN5QListI7QStringE4Node1tEv
FN:172,_ZN5QListI7QStringE6detachEv
FNDA:0,_ZN5QListI7QStringE6detachEv
FN:235,_ZN5QListI7QStringE8iteratorC2EPNS1_4NodeE
FNDA:0,_ZN5QListI7QStringE8iteratorC2EPNS1_4NodeE
FN:241,_ZNK5QListI7QStringE8iteratordeEv
FNDA:0,_ZNK5QListI7QStringE8iteratordeEv
FN:245,_ZNK5QListI7QStringE8iteratorneERKS2_
FNDA:0,_ZNK5QListI7QStringE8iteratorneERKS2_
FN:264,_ZN5QListI7QStringE8iteratorppEv
FNDA:0,_ZN5QListI7QStringE8iteratorppEv
FN:324,_ZN5QListI7QStringE5beginEv
FNDA:0,_ZN5QListI7QStringE5beginEv
FN:328,_ZN5QListI7QStringE3endEv
FNDA:0,_ZN5QListI7QStringE3endEv
FN:459,_ZN5QListI7QStringE9node_copyEPNS1_4NodeES3_S3_
FNDA:0,_ZN5QListI7QStringE9node_copyEPNS1_4NodeES3_S3_
FN:494,_ZN5QListI7QStringE13node_destructEPNS1_4NodeES3_
FNDA:0,_ZN5QListI7QStringE13node_destructEPNS1_4NodeES3_
FN:786,_ZN5QListI7QStringE13detach_helperEi
FNDA:0,_ZN5QListI7QStringE13detach_helperEi
FN:803,_ZN5QListI7QStringE13detach_helperEv
FNDA:0,_ZN5QListI7QStringE13detach_helperEv
FN:827,_ZN5QListI7QStringED2Ev
FNDA:0,_ZN5QListI7QStringED2Ev
FN:866,_ZN5QListI7QStringE7deallocEPN9QListData4DataE
FNDA:0,_ZN5QListI7QStringE7deallocEPN9QListData4DataE
DA:100,0
DA:116,0
DA:117,0
DA:142,0
DA:144,0
DA:172,0
DA:235,0
DA:241,0
DA:245,0
DA:264,0
DA:324,0
DA:328,0
DA:459,0
DA:461,0
DA:477,0
DA:478,0
DA:479,0
DA:480,0
DA:491,0
DA:494,0
DA:499,0
DA:500,0
DA:786,0
DA:788,0
DA:789,0
DA:791,0
DA:792,0
DA:793,0
DA:794,0
DA:795,0
DA:798,0
DA:799,0
DA:800,0
DA:803,0
DA:805,0
DA:806,0
DA:827,0
DA:829,0
DA:830,0
DA:831,0
DA:866,0
DA:868,0
DA:869,0
DA:870,0
DA:871,0
end_of_record
SF:/usr/include/x86_64-linux-gnu/qt5/QtCore/qatomic.h
FN:60,_ZN14QAtomicIntegerIiEC2Ei
FNDA:0,_ZN14QAtomicIntegerIiEC2Ei
FN:162,_ZN10QAtomicIntC2Ei
FNDA:0,_ZN10QAtomicIntC2Ei
DA:60,0
DA:162,0
end_of_record
SF:/usr/include/x86_64-linux-gnu/qt5/QtCore/qbasicatomic.h
FN:103,_ZNK19QBasicAtomicIntegerIiE4loadEv
FNDA:0,_ZNK19QBasicAtomicIntegerIiE4loadEv
FN:114,_ZN19QBasicAtomicIntegerIiE3refEv
FNDA:0,_ZN19QBasicAtomicIntegerIiE3refEv
FN:115,_ZN19QBasicAtomicIntegerIiE5derefEv
FNDA:0,_ZN19QBasicAtomicIntegerIiE5derefEv
FN:221,_ZN19QBasicAtomicIntegerIiEC2Ei
FNDA:0,_ZN19QBasicAtomicIntegerIiEC2Ei
DA:103,0
DA:114,0
DA:115,0
DA:221,0
end_of_record
SF:/home/user/Desktop/pobedi-me-ako-znas/application/reckoui.cpp
FN:5,_ZN7ReckoUIC2EP7QWidget
FNDA:0,_ZN7ReckoUIC2EP7QWidget
FN:25,_ZN7ReckoUIC2EP7QWidgetP10QTcpSocket7QStringS4_bii
FNDA:2,_ZN7ReckoUIC2EP7QWidgetP10QTcpSocket7QStringS4_bii
FN:58,_ZN7ReckoUI5getUiEv
FNDA:0,_ZN7ReckoUI5getUiEv
FN:63,_ZN7ReckoUI7getTimeEv
FNDA:0,_ZN7ReckoUI7getTimeEv
FN:68,_ZN7ReckoUI9startGameEv
FNDA:5,_ZN7ReckoUI9startGameEv
FN:89,_ZN7ReckoUI11restartGameEv
FNDA:3,_ZN7ReckoUI11restartGameEv
FN:117,_ZN7ReckoUID2Ev
FNDA:2,_ZN7ReckoUID2Ev
FN:117,_ZN7ReckoUID0Ev
FNDA:2,_ZN7ReckoUID0Ev
FN:124,_ZN7ReckoUI15setUpBackgroundEv
FNDA:2,_ZN7ReckoUI15setUpBackgroundEv
FN:133,_ZN7ReckoUI24on_pbPotvrdi1MultiplayerEv
FNDA:2,_ZN7ReckoUI24on_pbPotvrdi1MultiplayerEv
FN:141,_ZN7ReckoUI24on_pbPotvrdi2MultiplayerEv
FNDA:2,_ZN7ReckoUI24on_pbPotvrdi2MultiplayerEv
FN:149,_ZN7ReckoUI24on_pbPotvrdi3MultiplayerEv
FNDA:3,_ZN7ReckoUI24on_pbPotvrdi3MultiplayerEv
FN:157,_ZN7ReckoUI24on_pbPotvrdi4MultiplayerEv
FNDA:2,_ZN7ReckoUI24on_pbPotvrdi4MultiplayerEv
FN:165,_ZN7ReckoUI24on_pbPotvrdi5MultiplayerEv
FNDA:0,_ZN7ReckoUI24on_pbPotvrdi5MultiplayerEv
FN:174,_ZN7ReckoUI13on_pbPotvrdi1Ev
FNDA:0,_ZN7ReckoUI13on_pbPotvrdi1Ev
FN:191,_ZN7ReckoUI13on_pbPotvrdi2Ev
FNDA:0,_ZN7ReckoUI13on_pbPotvrdi2Ev
FN:208,_ZN7ReckoUI13on_pbPotvrdi3Ev
FNDA:0,_ZN7ReckoUI13on_pbPotvrdi3Ev
FN:225,_ZN7ReckoUI13on_pbPotvrdi4Ev
FNDA:0,_ZN7ReckoUI13on_pbPotvrdi4Ev
FN:242,_ZN7ReckoUI13on_pbPotvrdi5Ev
FNDA:0,_ZN7ReckoUI13on_pbPotvrdi5Ev
FN:259,_ZN7ReckoUI5quessEv
FNDA:0,_ZN7ReckoUI5quessEv
FN:292,_ZN7ReckoUI8colorRowE7QString
FNDA:16,_ZN7ReckoUI8colorRowE7QString
FN:315,_ZN7ReckoUI9writeWordE7QString
FNDA:16,_ZN7ReckoUI9writeWordE7QString
FN:332,_ZN7ReckoUI7getWordEv
FNDA:9,_ZN7ReckoUI7getWordEv
FN:351,_ZN7ReckoUI10disableRowEib
FNDA:51,_ZN7ReckoUI10disableRowEib
FN:373,_ZN7ReckoUI9setUpRowsEv
FNDA:5,_ZN7ReckoUI9setUpRowsEv
FN:383,_ZN7ReckoUI12clearAllRowsEv
FNDA:3,_ZN7ReckoUI12clearAllRowsEv
FN:392,_ZN7ReckoUI8clearRowEi
FNDA:15,_ZN7ReckoUI8clearRowEi
FN:407,_ZN7ReckoUI10updateTimeEv
FNDA:204,_ZN7ReckoUI10updateTimeEv
FN:423,_ZN7ReckoUI10on_timesUpEv
FNDA:0,_ZN7ReckoUI10on_timesUpEv
FN:430,_ZN7ReckoUI11on_mTimesUpEv
FNDA:1,_ZN7ReckoUI11on_mTimesUpEv
FN:437,_ZN7ReckoUI11on_gameEndsEv
FNDA:0,_ZN7ReckoUI11on_gameEndsEv
FN:444,_ZN7ReckoUI15disableSolutionEv
FNDA:5,_ZN7ReckoUI15disableSolutionEv
FN:459,_ZN7ReckoUI13clearSolutionEv
FNDA:3,_ZN7ReckoUI13clearSolutionEv
FN:475,_ZN7ReckoUI12showSolutionE7QString
FNDA:2,_ZN7ReckoUI12showSolutionE7QString
FN:492,_ZN7ReckoUI11onReadyReadEv
FNDA:18,_ZN7ReckoUI11onReadyReadEv
FN:508,_ZN7ReckoUI20processServerMessageE7QString
FNDA:40,_ZN7ReckoUI20processServerMessageE7QString
FN:578,_ZN7ReckoUI7endGameEv
FNDA:2,_ZN7ReckoUI7endGameEv
FN:596,_ZN7ReckoUI11sendMessageEP10QTcpSocket7QString
FNDA:9,_ZN7ReckoUI11sendMessageEP10QTcpSocket7QString
FN:603,_ZN7ReckoUI10getPlayer1Ev
FNDA:0,_ZN7ReckoUI10getPlayer1Ev
FN:608,_ZN7ReckoUI10getPlayer2Ev
FNDA:0,_ZN7ReckoUI10getPlayer2Ev
FN:613,_ZN7ReckoUI16getPlayer1PointsEv
FNDA:4,_ZN7ReckoUI16getPlayer1PointsEv
FN:618,_ZN7ReckoUI16getPlayer2PointsEv
FNDA:4,_ZN7ReckoUI16getPlayer2PointsEv
DA:5,0
DA:6,0
DA:8,0
DA:9,0
DA:10,0
DA:11,0
DA:12,0
DA:13,0
DA:14,0
DA:15,0
DA:17,0
DA:19,0
DA:20,0
DA:21,0
DA:22,0
DA:23,0
DA:25,2
DA:26,2
DA:27,2
DA:29,2
DA:30,2
DA:31,2
DA:32,2
DA:33,2
DA:34,2
DA:35,2
DA:36,2
DA:37,2
DA:38,2
DA:39,2
DA:40,2
DA:41,2
DA:42,2
DA:44,2
DA:46,1
DA:47,1
DA:51,1
DA:52,1
DA:55,2
DA:56,2
DA:58,0
DA:60,0
DA:63,0
DA:65,0
DA:68,5
DA:70,5
DA:71,5
DA:72,5
DA:73,5
DA:75,3
DA:76,3
DA:77,3
DA:78,3
DA:79,3
DA:80,3
DA:84,2
DA:86,5
DA:89,3
DA:91,3
DA:92,3
DA:93,3
DA:95,3
DA:96,3
DA:98,1
DA:99,1
DA:100,1
DA:101,1
DA:102,1
DA:103,1
DA:104,1
DA:108,2
DA:110,3
DA:111,3
DA:112,3
DA:113,3
DA:114,3
DA:115,3
DA:117,2
DA:122,2
DA:117,2
DA:119,2
DA:120,2
DA:121,2
DA:122,2
DA:124,2
DA:126,4
DA:127,2
DA:128,4
DA:129,2
DA:130,2
DA:131,2
DA:133,2
DA:135,4
DA:136,2
DA:138,2
DA:140,2
DA:141,2
DA:143,4
DA:144,2
DA:146,2
DA:148,2
DA:149,3
DA:151,6
DA:152,3
DA:154,2
DA:156,3
DA:157,2
DA:159,4
DA:160,2
DA:162,2
DA:164,2
DA:165,0
DA:167,0
DA:168,0
DA:170,0
DA:172,0
DA:174,0
DA:176,0
DA:178,0
DA:179,0
DA:180,0
DA:181,0
DA:185,0
DA:186,0
DA:187,0
DA:191,0
DA:193,0
DA:195,0
DA:196,0
DA:197,0
DA:198,0
DA:202,0
DA:203,0
DA:204,0
DA:208,0
DA:210,0
DA:212,0
DA:213,0
DA:214,0
DA:215,0
DA:219,0
DA:220,0
DA:221,0
DA:225,0
DA:227,0
DA:229,0
DA:230,0
DA:231,0
DA:232,0
DA:236,0
DA:237,0
DA:238,0
DA:242,0
DA:244,0
DA:246,0
DA:247,0
DA:248,0
DA:249,0
DA:253,0
DA:254,0
DA:255,0
DA:259,0
DA:261,0
DA:262,0
DA:264,0
DA:265,0
DA:267,0
DA:269,0
DA:271,0
DA:273,0
DA:275,0
DA:276,0
DA:278,0
DA:280,0
DA:285,0
DA:287,0
DA:289,0
DA:292,16
DA:294,32
DA:295,16
DA:297,96
DA:299,80
DA:301,80
DA:303,80
DA:305,26
DA:307,54
DA:309,20
DA:313,16
DA:315,16
DA:317,16
DA:318,32
DA:319,16
DA:321,96
DA:323,80
DA:325,80
DA:327,80
DA:330,16
DA:332,9
DA:334,18
DA:335,9
DA:336,18
DA:337,54
DA:339,45
DA:341,45
DA:343,90
DA:344,45
DA:347,9
DA:348,18
DA:351,51
DA:353,51
DA:355,0
DA:357,51
DA:358,51
DA:360,306
DA:362,255
DA:364,255
DA:366,255
DA:370,51
DA:373,5
DA:376,25
DA:378,20
DA:380,5
DA:381,5
DA:383,3
DA:385,18
DA:387,15
DA:389,3
DA:390,3
DA:392,15
DA:394,15
DA:395,90
DA:397,75
DA:399,75
DA:401,75
DA:402,75
DA:405,15
DA:407,204
DA:409,204
DA:411,204
DA:414,204
DA:416,2
DA:418,1
DA:421,204
DA:423,0
DA:425,0
DA:426,0
DA:427,0
DA:428,0
DA:430,1
DA:432,1
DA:433,1
DA:434,1
DA:435,1
DA:437,0
DA:439,0
DA:440,0
DA:441,0
DA:442,0
DA:444,5
DA:446,5
DA:448,30
DA:450,25
DA:452,25
DA:454,25
DA:457,5
DA:459,3
DA:461,3
DA:463,18
DA:465,15
DA:467,15
DA:469,15
DA:470,15
DA:473,3
DA:475,2
DA:477,2
DA:478,2
DA:479,12
DA:481,10
DA:483,10
DA:485,10
DA:486,10
DA:487,10
DA:490,2
DA:492,18
DA:494,36
DA:495,36
DA:497,36
DA:499,78
DA:501,60
DA:503,40
DA:506,18
DA:508,40
DA:510,40
DA:512,32
DA:513,16
DA:514,16
DA:515,16
DA:516,16
DA:518,14
DA:520,10
DA:521,10
DA:523,14
DA:526,24
DA:528,2
DA:529,2
DA:530,2
DA:531,2
DA:532,2
DA:533,2
DA:535,2
DA:536,2
DA:538,1
DA:539,1
DA:543,1
DA:544,1
DA:547,2
DA:548,2
DA:550,22
DA:552,16
DA:553,16
DA:555,6
DA:557,2
DA:558,2
DA:560,4
DA:562,2
DA:563,2
DA:564,2
DA:568,2
DA:569,2
DA:570,2
DA:576,40
DA:578,2
DA:580,2
DA:581,2
DA:582,2
DA:583,2
DA:584,2
DA:586,2
DA:587,2
DA:588,2
DA:589,2
DA:590,2
DA:592,2
DA:593,2
DA:594,2
DA:596,9
DA:598,9
DA:599,9
DA:600,9
DA:601,9
DA:603,0
DA:605,0
DA:608,0
DA:610,0
DA:613,4
DA:615,4
DA:618,4
DA:620,4
end_of_record
SF:/usr/include/x86_64-linux-gnu/qt5/QtCore/qobjectdefs_impl.h
FN:88,_ZN9QtPrivate16ApplyReturnValueIvEC2EPv
FNDA:0,_ZN9QtPrivate16ApplyReturnValueIvEC2EPv
FN:151,_ZN9QtPrivate11FunctorCallINS_11IndexesListIJEEENS_4ListIJEEEvM7ReckoUIFvvEE4callES7_PS5_PPv
FNDA:15,_ZN9QtPrivate11FunctorCallINS_11IndexesListIJEEENS_4ListIJEEEvM7ReckoUIFvvEE4callES7_PS5_PPv
FN:184,_ZN9QtPrivate15FunctionPointerIM7ReckoUIFvvEE4callINS_4ListIJEEEvEEvS3_PS1_PPv
FNDA:15,_ZN9QtPrivate15FunctionPointerIM7ReckoUIFvvEE4callINS_4ListIJEEEvEEvS3_PS1_PPv
FN:387,_ZN9QtPrivate15QSlotObjectBaseC2EPFviPS0_P7QObjectPPvPbE
FNDA:0,_ZN9QtPrivate15QSlotObjectBaseC2EPFviPS0_P7QObjectPPvPbE
FN:396,_ZN9QtPrivate15QSlotObjectBaseD2Ev
FNDA:0,_ZN9QtPrivate15QSlotObjectBaseD2Ev
FN:407,_ZN9QtPrivate11QSlotObjectIM7ReckoUIFvvENS_4ListIJEEEvE4implEiPNS_15QSlotObjectBaseEP7QObjectPPvPb
FNDA:56,_ZN9QtPrivate11QSlotObjectIM7ReckoUIFvvENS_4ListIJEEEvE4implEiPNS_15QSlotObjectBaseEP7QObjectPPvPb
FN:423,_ZN9QtPrivate11QSlotObjectIM7ReckoUIFvvENS_4ListIJEEEvEC2ES3_
FNDA:23,_ZN9QtPrivate11QSlotObjectIM7ReckoUIFvvENS_4ListIJEEEvEC2ES3_
DA:88,0
DA:151,15
DA:152,15
DA:153,15
DA:184,15
DA:185,15
DA:186,15
DA:387,0
DA:396,0
DA:407,56
DA:409,56
DA:410,23
DA:411,23
DA:412,23
DA:413,15
DA:414,15
DA:415,15
DA:416,18
DA:417,18
DA:418,18
DA:419,56
DA:421,56
DA:423,23
end_of_record
SF:/usr/include/c++/9/bits/atomic_base.h
FN:99,_ZStanSt12memory_orderSt23__memory_order_modifier
FNDA:0,_ZStanSt12memory_orderSt23__memory_order_modifier
FN:279,_ZNSt13__atomic_baseIiEC2Ei
FNDA:0,_ZNSt13__atomic_baseIiEC2Ei
FN:318,_ZNSt13__atomic_baseIiEppEv
FNDA:0,_ZNSt13__atomic_baseIiEppEv
FN:326,_ZNSt13__atomic_baseIiEmmEv
FNDA:0,_ZNSt13__atomic_baseIiEmmEv
DA:99,0
DA:101,0
DA:279,0
DA:318,0
DA:319,0
DA:326,0
DA:327,0
DA:415,0
DA:419,0
end_of_record
SF:/usr/include/x86_64-linux-gnu/qt5/QtCore/qobject_impl.h
FN:73,_ZN9QtPrivate15ConnectionTypesINS_4ListIJEEELb1EE5typesEv
FNDA:0,_ZN9QtPrivate15ConnectionTypesINS_4ListIJEEELb1EE5typesEv
FN:75,_ZN9QtPrivate15ConnectionTypesINS_4ListIJbEEELb1EE5typesEv
FNDA:0,_ZN9QtPrivate15ConnectionTypesINS_4ListIJbEEELb1EE5typesEv
DA:73,0
DA:75,0
end_of_record
SF:/home/user/Desktop/pobedi-me-ako-znas/application/reckoui.h
end_of_record
TN:
SF:/usr/include/x86_64-linux-gnu/qt5/QtCore/qpair.h
FN:58,_ZN5QPairI7QStringS0_EC2ERKS0_S3_
FNDA:0,_ZN5QPairI7QStringS0_EC2ERKS0_S3_
DA:58,0
DA:61,0
end_of_record
SF:/usr/include/c++/9/bits/stl_algo.h
FN:112,_ZSt9__find_ifIPKiN9__gnu_cxx5__ops16_Iter_equals_valIS0_EEET_S6_S6_T0_St26random_access_iterator_tag
FNDA:0,_ZSt9__find_ifIPKiN9__gnu_cxx5__ops16_Iter_equals_valIS0_EEET_S6_S6_T0_St26random_access_iterator_tag
FN:159,_ZSt9__find_ifIPKiN9__gnu_cxx5__ops16_Iter_equals_valIS0_EEET_S6_S6_T0_
FNDA:0,_ZSt9__find_ifIPKiN9__gnu_cxx5__ops16_Iter_equals_valIS0_EEET_S6_S6_T0_
FN:3930,_ZSt4findIPKiiET_S2_S2_RKT0_
FNDA:0,_ZSt4findIPKiiET_S2_S2_RKT0_
DA:112,0
DA:116,0
DA:118,0
DA:120,0
DA:121,0
DA:122,0
DA:124,0
DA:125,0
DA:126,0
DA:128,0
DA:129,0
DA:130,0
DA:132,0
DA:133,0
DA:134,0
DA:137,0
DA:139,0
DA:140,0
DA:141,0
DA:142,0
DA:143,0
DA:144,0
DA:145,0
DA:146,0
DA:147,0
DA:148,0
DA:149,0
DA:150,0
DA:151,0
DA:153,0
DA:159,0
DA:161,0
DA:162,0
DA:3930,0
DA:3938,0
DA:3939,0
end_of_record
SF:/usr/include/c++/9/new
FN:173,_ZnwmPv
FNDA:0,_ZnwmPv
DA:173,0
DA:174,0
end_of_record
SF:/usr/include/c++/9/bits/move.h
FN:99,_ZSt4moveIRP15QTypedArrayDataI7QStringEEONSt16remove_referenceIT_E4typeEOS6_
FNDA:6,_ZSt4moveIRP15QTypedArrayDataI7QStringEEONSt16remove_referenceIT_E4typeEOS6_
FN:99,_ZSt4moveIR5QCharEONSt16remove_referenceIT_E4typeEOS3_
FNDA:0,_ZSt4moveIR5QCharEONSt16remove_referenceIT_E4typeEOS3_
FN:99,_ZSt4moveIRiEONSt16remove_referenceIT_E4typeEOS2_
FNDA:0,_ZSt4moveIRiEONSt16remove_referenceIT_E4typeEOS2_
FN:99,_ZSt4moveIR7QVectorI7QStringEEONSt16remove_referenceIT_E4typeEOS5_
FNDA:2,_ZSt4moveIR7QVectorI7QStringEEONSt16remove_referenceIT_E4typeEOS5_
FN:99,_ZSt4moveIR7QStringEONSt16remove_referenceIT_E4typeEOS3_
FNDA:0,_ZSt4moveIR7QStringEONSt16remove_referenceIT_E4typeEOS3_
FN:182,_ZSt4swapIP15QTypedArrayDataI7QStringEENSt9enable_ifIXsrSt6__and_IJSt6__not_ISt15__is_tuple_likeIT_EESt21is_move_constructibleIS8_ESt18is_move_assignableIS8_EEE5valueEvE4typeERS8_SI_
FNDA:2,_ZSt4swapIP15QTypedArrayDataI7QStringEENSt9enable_ifIXsrSt6__and_IJSt6__not_ISt15__is_tuple_likeIT_EESt21is_move_constructibleIS8_ESt18is_move_assignableIS8_EEE5valueEvE4typeERS8_SI_
DA:99,6
DA:100,6
DA:99,0
DA:100,0
DA:99,0
DA:100,0
DA:99,2
DA:100,2
DA:99,0
DA:100,0
DA:182,2
DA:193,2
DA:194,2
DA:195,2
DA:196,2
end_of_record
SF:/usr/include/x86_64-linux-gnu/qt5/QtCore/qdebug.h
FN:125,_ZN6QDebug10maybeSpaceEv
FNDA:0,_ZN6QDebug10maybeSpaceEv
FN:145,_ZN6QDebuglsEi
FNDA:0,_ZN6QDebuglsEi
FN:153,_ZN6QDebuglsEPKc
FNDA:0,_ZN6QDebuglsEPKc
FN:155,_ZN6QDebuglsERK7QString
FNDA:0,_ZN6QDebuglsERK7QString
DA:125,0
DA:145,0
DA:153,0
DA:155,0
end_of_record
SF:/usr/include/x86_64-linux-gnu/qt5/QtCore/qchar.h
FN:81,_ZN5QCharC2Ev
FNDA:0,_ZN5QCharC2Ev
FN:86,_ZN5QCharC2Ei
FNDA:0,_ZN5QCharC2Ei
FN:452,_ZNK5QChar8toLatin1Ev
FNDA:0,_ZNK5QChar8toLatin1Ev
FN:472,_ZNK5QChar7isDigitEv
FNDA:4,_ZNK5QChar7isDigitEv
FN:573,_ZN5QChar7isDigitEj
FNDA:4,_ZN5QChar7isDigitEj
FN:600,_Zeq5QCharS_
FNDA:150,_Zeq5QCharS_
FN:603,_Zne5QCharS_
FNDA:0,_Zne5QCharS_
DA:81,0
DA:86,0
DA:452,0
DA:472,4
DA:573,4
DA:574,4
DA:600,150
DA:603,0
end_of_record
SF:/usr/include/x86_64-linux-gnu/qt5/QtCore/qarraydata.h
FN:57,_ZN10QArrayData4dataEv
FNDA:0,_ZN10QArrayData4dataEv
FN:64,_ZNK10QArrayData4dataEv
FNDA:0,_ZNK10QArrayData4dataEv
FN:123,_ZN10QArrayData10sharedNullEv
FNDA:0,_ZN10QArrayData10sharedNullEv
FN:208,_ZN15QTypedArrayDataI5QCharE4dataEv
FNDA:0,_ZN15QTypedArrayDataI5QCharE4dataEv
FN:208,_ZN15QTypedArrayDataItE4dataEv
FNDA:0,_ZN15QTypedArrayDataItE4dataEv
FN:208,_ZN15QTypedArrayDataI7QStringE4dataEv
FNDA:0,_ZN15QTypedArrayDataI7QStringE4dataEv
FN:208,_ZN15QTypedArrayDataIiE4dataEv
FNDA:0,_ZN15QTypedArrayDataIiE4dataEv
FN:209,_ZNK15QTypedArrayDataI7QStringE4dataEv
FNDA:0,_ZNK15QTypedArrayDataI7QStringE4dataEv
FN:211,_ZN15QTypedArrayDataI7QStringE5beginEPS0_
FNDA:0,_ZN15QTypedArrayDataI7QStringE5beginEPS0_
FN:211,_ZN15QTypedArrayDataIiE5beginEPi
FNDA:0,_ZN15QTypedArrayDataIiE5beginEPi
FN:211,_ZN15QTypedArrayDataI5QCharE5beginEPS0_
FNDA:0,_ZN15QTypedArrayDataI5QCharE5beginEPS0_
FN:212,_ZN15QTypedArrayDataI5QCharE3endEPS0_
FNDA:0,_ZN15QTypedArrayDataI5QCharE3endEPS0_
FN:212,_ZN15QTypedArrayDataIiE3endEPi
FNDA:0,_ZN15QTypedArrayDataIiE3endEPi
FN:212,_ZN15QTypedArrayDataI7QStringE3endEPS0_
FNDA:0,_ZN15QTypedArrayDataI7QStringE3endEPS0_
FN:215,_ZNK15QTypedArrayDataI7QStringE10constBeginEPKS0_
FNDA:0,_ZNK15QTypedArrayDataI7QStringE10constBeginEPKS0_
FN:216,_ZNK15QTypedArrayDataI7QStringE8constEndEPKS0_
FNDA:0,_ZNK15QTypedArrayDataI7QStringE8constEndEPKS0_
FN:220,_ZN15QTypedArrayDataI5QCharE8allocateEm6QFlagsIN10QArrayData16AllocationOptionEE
FNDA:0,_ZN15QTypedArrayDataI5QCharE8allocateEm6QFlagsIN10QArrayData16AllocationOptionEE
FN:220,_ZN15QTypedArrayDataI7QStringE8allocateEm6QFlagsIN10QArrayData16AllocationOptionEE
FNDA:0,_ZN15QTypedArrayDataI7QStringE8allocateEm6QFlagsIN10QArrayData16AllocationOptionEE
FN:220,_ZN15QTypedArrayDataIiE8allocateEm6QFlagsIN10QArrayData16AllocationOptionEE
FNDA:0,_ZN15QTypedArrayDataIiE8allocateEm6QFlagsIN10QArrayData16AllocationOptionEE
FN:236,_ZN15QTypedArrayDataIiE10deallocateEP10QArrayData
FNDA:0,_ZN15QTypedArrayDataIiE10deallocateEP10QArrayData
FN:236,_ZN15QTypedArrayDataI7QStringE10deallocateEP10QArrayData
FNDA:0,_ZN15QTypedArrayDataI7QStringE10deallocateEP10QArrayData
FN:236,_ZN15QTypedArrayDataItE10deallocateEP10QArrayData
FNDA:0,_ZN15QTypedArrayDataItE10deallocateEP10QArrayData
FN:236,_ZN15QTypedArrayDataIcE10deallocateEP10QArrayData
FNDA:0,_ZN15QTypedArrayDataIcE10deallocateEP10QArrayData
FN:236,_ZN15QTypedArrayDataI5QCharE10deallocateEP10QArrayData
FNDA:0,_ZN15QTypedArrayDataI5QCharE10deallocateEP10QArrayData
FN:257,_ZN15QTypedArrayDataI5QCharE10sharedNullEv
FNDA:8,_ZN15QTypedArrayDataI5QCharE10sharedNullEv
FN:257,_ZN15QTypedArrayDataI7QStringE10sharedNullEv
FNDA:0,_ZN15QTypedArrayDataI7QStringE10sharedNullEv
FN:257,_ZN15QTypedArrayDataIiE10sharedNullEv
FNDA:0,_ZN15QTypedArrayDataIiE10sharedNullEv
FN:257,_ZN15QTypedArrayDataItE10sharedNullEv
FNDA:0,_ZN15QTypedArrayDataItE10sharedNullEv
FN:270,_ZN15QTypedArrayDataI7QStringE15unsharableEmptyEv
FNDA:0,_ZN15QTypedArrayDataI7QStringE15unsharableEmptyEv
FN:270,_ZN15QTypedArrayDataI5QCharE15unsharableEmptyEv
FNDA:0,_ZN15QTypedArrayDataI5QCharE15unsharableEmptyEv
FN:270,_ZN15QTypedArrayDataIiE15unsharableEmptyEv
FNDA:0,_ZN15QTypedArrayDataIiE15unsharableEmptyEv
DA:57,0
DA:61,0
DA:64,0
DA:68,0
DA:123,0
DA:208,0
DA:208,0
DA:208,0
DA:208,0
DA:209,0
DA:211,0
DA:211,0
DA:211,0
DA:212,0
DA:212,0
DA:212,0
DA:215,0
DA:216,0
DA:220,0
DA:224,0
DA:225,0
DA:220,0
DA:224,0
DA:225,0
DA:220,0
DA:224,0
DA:225,0
DA:236,0
DA:239,0
DA:240,0
DA:236,0
DA:239,0
DA:240,0
DA:236,0
DA:239,0
DA:240,0
DA:236,0
DA:239,0
DA:240,0
DA:236,0
DA:239,0
DA:240,0
DA:257,8
DA:260,8
DA:257,0
DA:260,0
DA:257,0
DA:260,0
DA:257,0
DA:260,0
DA:270,0
DA:273,0
DA:270,0
DA:273,0
DA:270,0
DA:273,0
end_of_record
SF:/home/user/Desktop/pobedi-me-ako-znas/application/mojbrojlogic.cpp
FN:9,_ZN12MojBrojLogicC2Ev
FNDA:2,_ZN12MojBrojLogicC2Ev
FN:15,_ZN12MojBrojLogic15getCurrentRoundEv
FNDA:0,_ZN12MojBrojLogic15getCurrentRoundEv
FN:20,_ZN12MojBrojLogic15getTargetNumberEv
FNDA:7,_ZN12MojBrojLogic15getTargetNumberEv
FN:25,_ZN12MojBrojLogic15setTargetNumberEi
FNDA:7,_ZN12MojBrojLogic15setTargetNumberEi
FN:30,_ZN12MojBrojLogic7endGameEv
FNDA:2,_ZN12MojBrojLogic7endGameEv
FN:51,_ZN12MojBrojLogic12chooseNumberEi
FNDA:4,_ZN12MojBrojLogic12chooseNumberEi
FN:64,_ZN12MojBrojLogic15chooseOperationERK7QString
FNDA:0,_ZN12MojBrojLogic15chooseOperationERK7QString
FN:69,_ZN12MojBrojLogic15deleteLastInputEv
FNDA:0,_ZN12MojBrojLogic15deleteLastInputEv
FN:92,_ZN12MojBrojLogic14vectorToStringERK7QVectorI7QStringE
FNDA:0,_ZN12MojBrojLogic14vectorToStringERK7QVectorI7QStringE
FN:103,_ZNK12MojBrojLogic18validateExpressionERK7QString
FNDA:4,_ZNK12MojBrojLogic18validateExpressionERK7QString
FN:146,_ZNK12MojBrojLogic18evaluateExpressionERK7QString
FNDA:4,_ZNK12MojBrojLogic18evaluateExpressionERK7QString
FN:154,_ZZNK12MojBrojLogic18evaluateExpressionERK7QStringENKUl5QCharE_clES3_
FNDA:0,_ZZNK12MojBrojLogic18evaluateExpressionERK7QStringENKUl5QCharE_clES3_
FN:162,_ZZNK12MojBrojLogic18evaluateExpressionERK7QStringENKUlii5QCharE0_clEiiS3_
FNDA:0,_ZZNK12MojBrojLogic18evaluateExpressionERK7QStringENKUlii5QCharE0_clEiiS3_
FN:243,_ZN12MojBrojLogic14submitSolutionERK7QStringS2_
FNDA:4,_ZN12MojBrojLogic14submitSolutionERK7QStringS2_
DA:9,2
DA:11,2
DA:12,14
DA:13,2
DA:15,0
DA:17,0
DA:20,7
DA:22,7
DA:25,7
DA:27,7
DA:28,7
DA:30,2
DA:32,2
DA:33,2
DA:34,2
DA:36,2
DA:38,2
DA:39,2
DA:40,2
DA:41,0
DA:42,0
DA:43,0
DA:44,0
DA:45,0
DA:51,4
DA:53,4
DA:55,4
DA:56,4
DA:60,0
DA:62,4
DA:64,0
DA:66,0
DA:67,0
DA:69,0
DA:71,0
DA:73,0
DA:74,0
DA:77,0
DA:79,0
DA:81,0
DA:84,0
DA:85,0
DA:88,0
DA:89,0
DA:92,0
DA:94,0
DA:95,0
DA:97,0
DA:100,0
DA:103,4
DA:105,8
DA:106,4
DA:108,0
DA:111,8
DA:112,4
DA:114,0
DA:117,8
DA:119,12
DA:121,8
DA:123,0
DA:125,8
DA:127,0
DA:129,0
DA:133,0
DA:138,4
DA:140,0
DA:143,4
DA:146,4
DA:149,4
DA:151,0
DA:154,0
DA:155,0
DA:156,0
DA:157,0
DA:158,0
DA:159,0
DA:162,0
DA:163,0
DA:165,0
DA:166,0
DA:167,0
DA:168,0
DA:169,0
DA:170,0
DA:171,0
DA:172,0
DA:173,0
DA:174,0
DA:178,8
DA:179,8
DA:181,4
DA:182,4
DA:184,8
DA:186,4
DA:187,4
DA:189,4
DA:191,4
DA:192,4
DA:194,0
DA:196,0
DA:198,0
DA:200,0
DA:202,0
DA:203,0
DA:204,0
DA:205,0
DA:206,0
DA:207,0
DA:208,0
DA:210,0
DA:212,0
DA:214,0
DA:216,0
DA:217,0
DA:218,0
DA:219,0
DA:220,0
DA:221,0
DA:222,0
DA:224,0
DA:228,4
DA:230,0
DA:231,0
DA:232,0
DA:233,0
DA:234,0
DA:235,0
DA:236,0
DA:239,4
DA:243,4
DA:245,4
DA:247,0
DA:250,4
DA:252,4
DA:254,0
DA:257,4
DA:259,4
DA:260,4
DA:261,4
DA:262,4
DA:264,4
end_of_record
SF:/usr/include/x86_64-linux-gnu/qt5/QtCore/qstring.h
FN:234,_ZN7QStringC2EOS_
FNDA:0,_ZN7QStringC2EOS_
FN:239,_ZNK7QString4sizeEv
FNDA:0,_ZNK7QString4sizeEv
FN:483,_ZN7QStringpLERKS_
FNDA:0,_ZN7QStringpLERKS_
FN:549,_ZNKR7QString6toUtf8Ev
FNDA:0,_ZNKR7QString6toUtf8Ev
FN:570,_ZN7QString8fromUtf8EPKci
FNDA:0,_ZN7QString8fromUtf8EPKci
FN:699,_ZN7QStringC2EPKc
FNDA:0,_ZN7QStringC2EPKc
FN:933,_ZNK7QString6lengthEv
FNDA:0,_ZNK7QString6lengthEv
FN:949,_ZNK7QString9constDataEv
FNDA:0,_ZNK7QString9constDataEv
FN:957,_ZN7QStringC2ERKS_
FNDA:0,_ZN7QStringC2ERKS_
FN:1134,_ZN7QStringC2Ev
FNDA:0,_ZN7QStringC2Ev
FN:1135,_ZN7QStringD2Ev
FNDA:0,_ZN7QStringD2Ev
FN:1170,_ZNK7QString5beginEv
FNDA:4,_ZNK7QString5beginEv
FN:1178,_ZNK7QString3endEv
FNDA:4,_ZNK7QString3endEv
FN:1237,_ZNK7QStringeqEPKc
FNDA:0,_ZNK7QStringeqEPKc
DA:234,0
DA:239,0
DA:483,0
DA:549,0
DA:550,0
DA:570,0
DA:572,0
DA:699,0
DA:700,0
DA:701,0
DA:933,0
DA:934,0
DA:949,0
DA:950,0
DA:957,0
DA:958,0
DA:1134,0
DA:1135,0
DA:1170,4
DA:1171,4
DA:1178,4
DA:1179,4
DA:1237,0
DA:1238,0
end_of_record
SF:/usr/include/x86_64-linux-gnu/qt5/QtCore/qbytearray.h
FN:476,_ZN10QByteArrayD2Ev
FNDA:0,_ZN10QByteArrayD2Ev
DA:476,0
end_of_record
SF:/usr/include/x86_64-linux-gnu/qt5/QtCore/qglobal.h
FN:581,_Z4qAbsIiET_RKS0_
FNDA:4,_Z4qAbsIiET_RKS0_
FN:596,_Z4qMaxIiERKT_S2_S2_
FNDA:0,_Z4qMaxIiERKT_S2_S2_
FN:911,_Z5qSwapIP15QTypedArrayDataI7QStringEEvRT_S5_
FNDA:2,_Z5qSwapIP15QTypedArrayDataI7QStringEEvRT_S5_
DA:581,4
DA:596,0
DA:911,2
DA:915,2
DA:916,2
end_of_record
SF:/usr/include/x86_64-linux-gnu/qt5/QtCore/qatomic_cxx11.h
FN:225,_ZN10QAtomicOpsIiE4loadIiEET_RKSt6atomicIS2_E
FNDA:0,_ZN10QAtomicOpsIiE4loadIiEET_RKSt6atomicIS2_E
FN:263,_ZN10QAtomicOpsIiE3refIiEEbRSt6atomicIT_E
FNDA:0,_ZN10QAtomicOpsIiE3refIiEEbRSt6atomicIT_E
FN:269,_ZN10QAtomicOpsIiE5derefIiEEbRSt6atomicIT_E
FNDA:0,_ZN10QAtomicOpsIiE5derefIiEEbRSt6atomicIT_E
DA:225,0
DA:227,0
DA:263,0
DA:265,0
DA:269,0
DA:271,0
end_of_record
SF:/usr/include/x86_64-linux-gnu/qt5/QtCore/qbasicatomic.h
FN:103,_ZNK19QBasicAtomicIntegerIiE4loadEv
FNDA:0,_ZNK19QBasicAtomicIntegerIiE4loadEv
FN:114,_ZN19QBasicAtomicIntegerIiE3refEv
FNDA:0,_ZN19QBasicAtomicIntegerIiE3refEv
FN:115,_ZN19QBasicAtomicIntegerIiE5derefEv
FNDA:0,_ZN19QBasicAtomicIntegerIiE5derefEv
DA:103,0
DA:114,0
DA:115,0
end_of_record
SF:/usr/include/c++/9/initializer_list
FN:71,_ZNKSt16initializer_listI7QStringE4sizeEv
FNDA:8,_ZNKSt16initializer_listI7QStringE4sizeEv
FN:75,_ZNKSt16initializer_listI7QStringE5beginEv
FNDA:4,_ZNKSt16initializer_listI7QStringE5beginEv
FN:79,_ZNKSt16initializer_listI7QStringE3endEv
FNDA:2,_ZNKSt16initializer_listI7QStringE3endEv
DA:71,8
DA:75,4
DA:79,2
end_of_record
SF:/usr/include/x86_64-linux-gnu/qt5/QtCore/qstack.h
FN:54,_ZN6QStackIiE4pushERKi
FNDA:4,_ZN6QStackIiE4pushERKi
FN:54,_ZN6QStackI5QCharE4pushERKS0_
FNDA:0,_ZN6QStackI5QCharE4pushERKS0_
FN:61,_ZN6QStackIiE3popEv
FNDA:0,_ZN6QStackIiE3popEv
FN:61,_ZN6QStackI5QCharE3popEv
FNDA:0,_ZN6QStackI5QCharE3popEv
FN:66,_ZN6QStackIiE3topEv
FNDA:4,_ZN6QStackIiE3topEv
FN:66,_ZN6QStackI5QCharE3topEv
FNDA:0,_ZN6QStackI5QCharE3topEv
DA:54,4
DA:54,0
DA:61,0
DA:62,0
DA:63,0
DA:61,0
DA:62,0
DA:63,0
DA:66,4
DA:67,4
DA:66,0
DA:67,0
end_of_record
SF:/usr/include/c++/9/bits/atomic_base.h
FN:99,_ZStanSt12memory_orderSt23__memory_order_modifier
FNDA:0,_ZStanSt12memory_orderSt23__memory_order_modifier
FN:318,_ZNSt13__atomic_baseIiEppEv
FNDA:0,_ZNSt13__atomic_baseIiEppEv
FN:326,_ZNSt13__atomic_baseIiEmmEv
FNDA:0,_ZNSt13__atomic_baseIiEmmEv
DA:99,0
DA:101,0
DA:318,0
DA:319,0
DA:326,0
DA:327,0
DA:415,0
DA:419,0
end_of_record
SF:/usr/include/x86_64-linux-gnu/qt5/QtCore/qlogging.h
FN:68,_ZN18QMessageLogContextC2EPKciS1_S1_
FNDA:0,_ZN18QMessageLogContextC2EPKciS1_S1_
FN:91,_ZN14QMessageLoggerC2EPKciS1_
FNDA:0,_ZN14QMessageLoggerC2EPKciS1_
DA:68,0
DA:69,0
DA:91,0
DA:92,0
end_of_record
SF:/usr/include/x86_64-linux-gnu/qt5/QtCore/qrefcount.h
FN:54,_ZN9QtPrivate8RefCount3refEv
FNDA:0,_ZN9QtPrivate8RefCount3refEv
FN:65,_ZN9QtPrivate8RefCount5derefEv
FNDA:0,_ZN9QtPrivate8RefCount5derefEv
FN:99,_ZNK9QtPrivate8RefCount8isSharedEv
FNDA:0,_ZNK9QtPrivate8RefCount8isSharedEv
DA:54,0
DA:55,0
DA:57,0
DA:58,0
DA:60,0
DA:61,0
DA:62,0
DA:65,0
DA:66,0
DA:68,0
DA:69,0
DA:71,0
DA:72,0
DA:73,0
DA:99,0
DA:101,0
DA:102,0
end_of_record
SF:/usr/include/x86_64-linux-gnu/qt5/QtCore/qvector.h
FN:69,_ZN7QVectorIiEC2Ev
FNDA:0,_ZN7QVectorIiEC2Ev
FN:69,_ZN7QVectorI7QStringEC2Ev
FNDA:4,_ZN7QVectorI7QStringEC2Ev
FN:69,_ZN7QVectorI5QCharEC2Ev
FNDA:8,_ZN7QVectorI5QCharEC2Ev
FN:73,_ZN7QVectorI7QStringED2Ev
FNDA:0,_ZN7QVectorI7QStringED2Ev
FN:73,_ZN7QVectorIiED2Ev
FNDA:0,_ZN7QVectorIiED2Ev
FN:73,_ZN7QVectorI5QCharED2Ev
FNDA:8,_ZN7QVectorI5QCharED2Ev
FN:76,_ZN7QVectorI7QStringEC2EOS1_
FNDA:2,_ZN7QVectorI7QStringEC2EOS1_
FN:77,_ZN7QVectorI7QStringEaSEOS1_
FNDA:2,_ZN7QVectorI7QStringEaSEOS1_
FN:80,_ZN7QVectorI7QStringE4swapERS1_
FNDA:2,_ZN7QVectorI7QStringE4swapERS1_
FN:87,_ZNK7QVectorIiE4sizeEv
FNDA:0,_ZNK7QVectorIiE4sizeEv
FN:87,_ZNK7QVectorI5QCharE4sizeEv
FNDA:0,_ZNK7QVectorI5QCharE4sizeEv
FN:89,_ZNK7QVectorI5QCharE7isEmptyEv
FNDA:8,_ZNK7QVectorI5QCharE7isEmptyEv
FN:89,_ZNK7QVectorI7QStringE7isEmptyEv
FNDA:0,_ZNK7QVectorI7QStringE7isEmptyEv
FN:106,_ZNK7QVectorI7QStringE10isDetachedEv
FNDA:0,_ZNK7QVectorI7QStringE10isDetachedEv
FN:106,_ZNK7QVectorIiE10isDetachedEv
FNDA:0,_ZNK7QVectorIiE10isDetachedEv
FN:106,_ZNK7QVectorI5QCharE10isDetachedEv
FNDA:0,_ZNK7QVectorI5QCharE10isDetachedEv
FN:127,_ZN7QVectorI5QCharE4dataEv
FNDA:0,_ZN7QVectorI5QCharE4dataEv
FN:127,_ZN7QVectorIiE4dataEv
FNDA:0,_ZN7QVectorIiE4dataEv
FN:175,_ZN7QVectorIiE9removeOneERKi
FNDA:4,_ZN7QVectorIiE9removeOneERKi
FN:206,_ZNK7QVectorI7QStringE5beginEv
FNDA:0,_ZNK7QVectorI7QStringE5beginEv
FN:209,_ZN7QVectorI7QStringE3endEv
FNDA:0,_ZN7QVectorI7QStringE3endEv
FN:210,_ZNK7QVectorI7QStringE3endEv
FNDA:0,_ZNK7QVectorI7QStringE3endEv
FN:240,_ZN7QVectorI7QStringE4lastEv
FNDA:0,_ZN7QVectorI7QStringE4lastEv
FN:272,_ZN7QVectorI7QStringE4backEv
FNDA:0,_ZN7QVectorI7QStringE4backEv
FN:286,_ZN7QVectorI7QStringEpLEOS0_
FNDA:4,_ZN7QVectorI7QStringEpLEOS0_
FN:302,_ZN7QVectorI7QStringE11reallocDataEi
FNDA:0,_ZN7QVectorI7QStringE11reallocDataEi
FN:324,_ZN7QVectorI5QCharE16defaultConstructEPS0_S2_
FNDA:0,_ZN7QVectorI5QCharE16defaultConstructEPS0_S2_
FN:324,_ZN7QVectorI7QStringE16defaultConstructEPS0_S2_
FNDA:0,_ZN7QVectorI7QStringE16defaultConstructEPS0_S2_
FN:324,_ZN7QVectorIiE16defaultConstructEPiS1_
FNDA:0,_ZN7QVectorIiE16defaultConstructEPiS1_
FN:336,_ZN7QVectorI7QStringE13copyConstructEPKS0_S3_PS0_
FNDA:0,_ZN7QVectorI7QStringE13copyConstructEPKS0_S3_PS0_
FN:347,_ZN7QVectorIiE8destructEPiS1_
FNDA:0,_ZN7QVectorIiE8destructEPiS1_
FN:347,_ZN7QVectorI7QStringE8destructEPS0_S2_
FNDA:0,_ZN7QVectorI7QStringE8destructEPS0_S2_
FN:347,_ZN7QVectorI5QCharE8destructEPS0_S2_
FNDA:0,_ZN7QVectorI5QCharE8destructEPS0_S2_
FN:382,_ZN7QVectorI7QStringE6detachEv
FNDA:0,_ZN7QVectorI7QStringE6detachEv
FN:382,_ZN7QVectorIiE6detachEv
FNDA:0,_ZN7QVectorIiE6detachEv
FN:382,_ZN7QVectorI5QCharE6detachEv
FNDA:0,_ZN7QVectorI5QCharE6detachEv
FN:410,_ZN7QVectorIiE6resizeEi
FNDA:0,_ZN7QVectorIiE6resizeEi
FN:410,_ZN7QVectorI7QStringE6resizeEi
FNDA:2,_ZN7QVectorI7QStringE6resizeEi
FN:410,_ZN7QVectorI5QCharE6resizeEi
FNDA:0,_ZN7QVectorI5QCharE6resizeEi
FN:425,_ZN7QVectorIiE5clearEv
FNDA:0,_ZN7QVectorIiE5clearEv
FN:425,_ZN7QVectorI7QStringE5clearEv
FNDA:2,_ZN7QVectorI7QStringE5clearEv
FN:456,_ZN7QVectorIiE6removeEi
FNDA:4,_ZN7QVectorIiE6removeEi
FN:521,_ZN7QVectorI7QStringEC2ESt16initializer_listIS0_E
FNDA:2,_ZN7QVectorI7QStringEC2ESt16initializer_listIS0_E
FN:540,_ZN7QVectorIiE8freeDataEP15QTypedArrayDataIiE
FNDA:0,_ZN7QVectorIiE8freeDataEP15QTypedArrayDataIiE
FN:540,_ZN7QVectorI7QStringE8freeDataEP15QTypedArrayDataIS0_E
FNDA:0,_ZN7QVectorI7QStringE8freeDataEP15QTypedArrayDataIS0_E
FN:540,_ZN7QVectorI5QCharE8freeDataEP15QTypedArrayDataIS0_E
FNDA:0,_ZN7QVectorI5QCharE8freeDataEP15QTypedArrayDataIS0_E
FN:552,_ZN7QVectorI5QCharE11reallocDataEii6QFlagsIN10QArrayData16AllocationOptionEE
FNDA:0,_ZN7QVectorI5QCharE11reallocDataEii6QFlagsIN10QArrayData16AllocationOptionEE
FN:552,_ZN7QVectorIiE11reallocDataEii6QFlagsIN10QArrayData16AllocationOptionEE
FNDA:0,_ZN7QVectorIiE11reallocDataEii6QFlagsIN10QArrayData16AllocationOptionEE
FN:552,_ZN7QVectorI7QStringE11reallocDataEii6QFlagsIN10QArrayData16AllocationOptionEE
FNDA:0,_ZN7QVectorI7QStringE11reallocDataEii6QFlagsIN10QArrayData16AllocationOptionEE
FN:676,_ZN7QVectorI5QCharE6appendERKS0_
FNDA:0,_ZN7QVectorI5QCharE6appendERKS0_
FN:676,_ZN7QVectorI7QStringE6appendERKS0_
FNDA:0,_ZN7QVectorI7QStringE6appendERKS0_
FN:676,_ZN7QVectorIiE6appendERKi
FNDA:0,_ZN7QVectorIiE6appendERKi
FN:700,_ZN7QVectorI7QStringE6appendEOS0_
FNDA:4,_ZN7QVectorI7QStringE6appendEOS0_
FN:715,_ZN7QVectorI7QStringE10removeLastEv
FNDA:0,_ZN7QVectorI7QStringE10removeLastEv
FN:795,_ZN7QVectorIiE5eraseEPiS1_
FNDA:4,_ZN7QVectorIiE5eraseEPiS1_
FN:900,_ZNK7QVectorIiE7indexOfERKii
FNDA:4,_ZNK7QVectorIiE7indexOfERKii
FN:933,_ZNK7QVectorIiE8containsERKi
FNDA:0,_ZNK7QVectorIiE8containsERKi
DA:69,8
DA:69,4
DA:69,0
DA:73,8
DA:73,0
DA:73,0
DA:76,2
DA:77,2
DA:78,2
DA:80,2
DA:87,0
DA:87,0
DA:89,8
DA:89,0
DA:106,0
DA:106,0
DA:106,0
DA:127,0
DA:127,0
DA:175,4
DA:177,4
DA:178,4
DA:179,0
DA:180,4
DA:181,4
DA:206,0
DA:209,0
DA:210,0
DA:240,0
DA:272,0
DA:286,4
DA:287,4
DA:302,0
DA:324,0
DA:327,0
DA:328,0
DA:333,0
DA:324,0
DA:331,0
DA:333,0
DA:324,0
DA:327,0
DA:328,0
DA:333,0
DA:336,0
DA:339,0
DA:340,0
DA:344,0
DA:347,0
DA:350,0
DA:351,0
DA:354,0
DA:347,0
DA:350,0
DA:351,0
DA:354,0
DA:347,0
DA:354,0
DA:382,0
DA:384,0
DA:386,0
DA:387,0
DA:390,0
DA:393,0
DA:382,0
DA:384,0
DA:386,0
DA:387,0
DA:390,0
DA:393,0
DA:382,0
DA:384,0
DA:386,0
DA:387,0
DA:390,0
DA:393,0
DA:410,0
DA:413,0
DA:414,0
DA:416,0
DA:417,0
DA:418,0
DA:420,0
DA:422,0
DA:423,0
DA:410,2
DA:413,2
DA:414,2
DA:416,2
DA:417,0
DA:418,0
DA:420,2
DA:422,2
DA:423,2
DA:410,0
DA:413,0
DA:414,0
DA:416,0
DA:417,0
DA:418,0
DA:420,0
DA:422,0
DA:423,0
DA:425,2
DA:426,2
DA:425,0
DA:426,0
DA:456,4
DA:458,4
DA:521,2
DA:523,2
DA:524,2
DA:525,2
DA:528,2
DA:529,2
DA:531,0
DA:533,2
DA:540,0
DA:542,0
DA:543,0
DA:544,0
DA:540,0
DA:542,0
DA:543,0
DA:544,0
DA:540,0
DA:542,0
DA:543,0
DA:544,0
DA:552,0
DA:555,0
DA:557,0
DA:559,0
DA:560,0
DA:563,0
DA:564,0
DA:570,0
DA:572,0
DA:573,0
DA:574,0
DA:576,0
DA:578,0
DA:580,0
DA:581,0
DA:583,0
DA:584,0
DA:592,0
DA:593,0
DA:596,0
DA:597,0
DA:600,0
DA:606,0
DA:607,0
DA:608,0
DA:610,0
DA:611,0
DA:615,0
DA:616,0
DA:617,0
DA:619,0
DA:624,0
DA:625,0
DA:627,0
DA:629,0
DA:632,0
DA:634,0
DA:635,0
DA:636,0
DA:639,0
DA:641,0
DA:644,0
DA:655,0
DA:552,0
DA:555,0
DA:557,0
DA:559,0
DA:560,0
DA:563,0
DA:564,0
DA:570,0
DA:572,0
DA:573,0
DA:574,0
DA:592,0
DA:593,0
DA:596,0
DA:597,0
DA:600,0
DA:603,0
DA:615,0
DA:616,0
DA:617,0
DA:619,0
DA:624,0
DA:625,0
DA:627,0
DA:629,0
DA:632,0
DA:634,0
DA:635,0
DA:636,0
DA:639,0
DA:641,0
DA:644,0
DA:655,0
DA:552,0
DA:555,0
DA:557,0
DA:559,0
DA:560,0
DA:563,0
DA:564,0
DA:570,0
DA:572,0
DA:573,0
DA:574,0
DA:576,0
DA:578,0
DA:580,0
DA:581,0
DA:583,0
DA:584,0
DA:592,0
DA:593,0
DA:596,0
DA:597,0
DA:600,0
DA:606,0
DA:607,0
DA:608,0
DA:610,0
DA:611,0
DA:615,0
DA:616,0
DA:617,0
DA:619,0
DA:624,0
DA:625,0
DA:627,0
DA:629,0
DA:632,0
DA:634,0
DA:635,0
DA:636,0
DA:639,0
DA:641,0
DA:644,0
DA:655,0
DA:676,0
DA:678,0
DA:679,0
DA:680,0
DA:681,0
DA:682,0
DA:685,0
DA:691,0
DA:695,0
DA:696,0
DA:676,0
DA:678,0
DA:679,0
DA:680,0
DA:681,0
DA:682,0
DA:687,0
DA:693,0
DA:695,0
DA:696,0
DA:676,0
DA:678,0
DA:679,0
DA:680,0
DA:681,0
DA:682,0
DA:685,0
DA:691,0
DA:695,0
DA:696,0
DA:700,4
DA:702,4
DA:703,4
DA:704,4
DA:705,4
DA:708,4
DA:710,4
DA:711,4
DA:715,0
DA:720,0
DA:721,0
DA:723,0
DA:725,0
DA:727,0
DA:795,4
DA:800,4
DA:802,4
DA:803,0
DA:809,4
DA:814,4
DA:815,4
DA:816,4
DA:817,4
DA:831,4
DA:835,4
DA:836,4
DA:838,4
DA:840,4
DA:900,4
DA:902,4
DA:903,0
DA:904,4
DA:905,4
DA:906,4
DA:907,22
DA:908,22
DA:909,4
DA:911,0
DA:933,0
DA:935,0
DA:936,0
DA:937,0
end_of_record
SF:/usr/include/x86_64-linux-gnu/qt5/QtCore/qflags.h
FN:120,_ZN6QFlagsIN18QRegularExpression11MatchOptionEEC2ES1_
FNDA:8,_ZN6QFlagsIN18QRegularExpression11MatchOptionEEC2ES1_
FN:120,_ZN6QFlagsIN18QRegularExpression13PatternOptionEEC2ES1_
FNDA:8,_ZN6QFlagsIN18QRegularExpression13PatternOptionEEC2ES1_
FN:120,_ZN6QFlagsIN9QIODevice12OpenModeFlagEEC2ES1_
FNDA:10,_ZN6QFlagsIN9QIODevice12OpenModeFlagEEC2ES1_
FN:120,_ZN6QFlagsIN10QArrayData16AllocationOptionEEC2ES1_
FNDA:0,_ZN6QFlagsIN10QArrayData16AllocationOptionEEC2ES1_
DA:120,8
DA:120,8
DA:120,10
DA:120,0
end_of_record
SF:/usr/include/c++/9/bits/stl_iterator_base_types.h
FN:205,_ZSt19__iterator_categoryIPKiENSt15iterator_traitsIT_E17iterator_categoryERKS3_
FNDA:0,_ZSt19__iterator_categoryIPKiENSt15iterator_traitsIT_E17iterator_categoryERKS3_
DA:205,0
DA:206,0
end_of_record
SF:/usr/include/c++/9/bits/predefined_ops.h
FN:234,_ZN9__gnu_cxx5__ops16_Iter_equals_valIKiEC2ERS2_
FNDA:0,_ZN9__gnu_cxx5__ops16_Iter_equals_valIKiEC2ERS2_
FN:240,_ZN9__gnu_cxx5__ops16_Iter_equals_valIKiEclIPS2_EEbT_
FNDA:0,_ZN9__gnu_cxx5__ops16_Iter_equals_valIKiEclIPS2_EEbT_
FN:246,_ZN9__gnu_cxx5__ops17__iter_equals_valIKiEENS0_16_Iter_equals_valIT_EERS4_
FNDA:0,_ZN9__gnu_cxx5__ops17__iter_equals_valIKiEENS0_16_Iter_equals_valIT_EERS4_
DA:234,0
DA:235,0
DA:236,0
DA:240,0
DA:241,0
DA:246,0
DA:247,0
end_of_record
TN:
SF:/usr/include/c++/9/bits/move.h
FN:99,_ZSt4moveIRPN9QListData4DataEEONSt16remove_referenceIT_E4typeEOS5_
FNDA:6,_ZSt4moveIRPN9QListData4DataEEONSt16remove_referenceIT_E4typeEOS5_
FN:99,_ZSt4moveIR5QListI7QStringEEONSt16remove_referenceIT_E4typeEOS5_
FNDA:2,_ZSt4moveIR5QListI7QStringEEONSt16remove_referenceIT_E4typeEOS5_
FN:182,_ZSt4swapIPN9QListData4DataEENSt9enable_ifIXsrSt6__and_IJSt6__not_ISt15__is_tuple_likeIT_EESt21is_move_constructibleIS7_ESt18is_move_assignableIS7_EEE5valueEvE4typeERS7_SH_
FNDA:2,_ZSt4swapIPN9QListData4DataEENSt9enable_ifIXsrSt6__and_IJSt6__not_ISt15__is_tuple_likeIT_EESt21is_move_constructibleIS7_ESt18is_move_assignableIS7_EEE5valueEvE4typeERS7_SH_
DA:99,6
DA:100,6
DA:99,2
DA:100,2
DA:182,2
DA:193,2
DA:194,2
DA:195,2
DA:196,2
end_of_record
SF:/usr/include/c++/9/new
FN:173,_ZnwmPv
FNDA:0,_ZnwmPv
DA:173,0
DA:174,0
end_of_record
SF:/usr/include/x86_64-linux-gnu/qt5/QtCore/qatomic_cxx11.h
FN:225,_ZN10QAtomicOpsIiE4loadIiEET_RKSt6atomicIS2_E
FNDA:0,_ZN10QAtomicOpsIiE4loadIiEET_RKSt6atomicIS2_E
FN:263,_ZN10QAtomicOpsIiE3refIiEEbRSt6atomicIT_E
FNDA:0,_ZN10QAtomicOpsIiE3refIiEEbRSt6atomicIT_E
FN:269,_ZN10QAtomicOpsIiE5derefIiEEbRSt6atomicIT_E
FNDA:0,_ZN10QAtomicOpsIiE5derefIiEEbRSt6atomicIT_E
DA:225,0
DA:227,0
DA:263,0
DA:265,0
DA:269,0
DA:271,0
end_of_record
SF:/usr/include/x86_64-linux-gnu/qt5/QtCore/qglobal.h
FN:911,_Z5qSwapIPN9QListData4DataEEvRT_S4_
FNDA:2,_Z5qSwapIPN9QListData4DataEEvRT_S4_
DA:911,2
DA:915,2
DA:916,2
end_of_record
SF:/usr/include/x86_64-linux-gnu/qt5/QtCore/qstring.h
FN:699,_ZN7QStringC2EPKc
FNDA:0,_ZN7QStringC2EPKc
FN:702,_ZN7QStringC2ERK10QByteArray
FNDA:0,_ZN7QStringC2ERK10QByteArray
FN:957,_ZN7QStringC2ERKS_
FNDA:0,_ZN7QStringC2ERKS_
FN:1135,_ZN7QStringD2Ev
FNDA:0,_ZN7QStringD2Ev
DA:699,0
DA:700,0
DA:701,0
DA:702,0
DA:703,0
DA:704,0
DA:957,0
DA:958,0
DA:1135,0
end_of_record
SF:/usr/include/x86_64-linux-gnu/qt5/QtCore/qbytearray.h
FN:76,_Z8qstrnlenPKcj
FNDA:0,_Z8qstrnlenPKcj
FN:476,_ZN10QByteArrayD2Ev
FNDA:0,_ZN10QByteArrayD2Ev
FN:477,_ZNK10QByteArray4sizeEv
FNDA:0,_ZNK10QByteArray4sizeEv
FN:499,_ZNK10QByteArray9constDataEv
FNDA:0,_ZNK10QByteArray9constDataEv
DA:76,0
DA:78,0
DA:79,0
DA:80,0
DA:81,0
DA:83,0
DA:476,0
DA:477,0
DA:478,0
DA:499,0
DA:500,0
end_of_record
SF:/usr/include/x86_64-linux-gnu/qt5/QtCore/qstringlist.h
FN:69,_ZN19QListSpecialMethodsI7QStringED2Ev
FNDA:0,_ZN19QListSpecialMethodsI7QStringED2Ev
FN:103,_ZN11QStringListC2Ev
FNDA:0,_ZN11QStringListC2Ev
DA:69,0
DA:103,0
end_of_record
SF:/usr/include/x86_64-linux-gnu/qt5/QtCore/qarraydata.h
FN:57,_ZN10QArrayData4dataEv
FNDA:0,_ZN10QArrayData4dataEv
FN:208,_ZN15QTypedArrayDataIcE4dataEv
FNDA:0,_ZN15QTypedArrayDataIcE4dataEv
FN:236,_ZN15QTypedArrayDataItE10deallocateEP10QArrayData
FNDA:0,_ZN15QTypedArrayDataItE10deallocateEP10QArrayData
FN:236,_ZN15QTypedArrayDataIcE10deallocateEP10QArrayData
FNDA:0,_ZN15QTypedArrayDataIcE10deallocateEP10QArrayData
DA:57,0
DA:61,0
DA:208,0
DA:236,0
DA:239,0
DA:240,0
DA:236,0
DA:239,0
DA:240,0
end_of_record
SF:/usr/include/c++/9/bits/atomic_base.h
FN:99,_ZStanSt12memory_orderSt23__memory_order_modifier
FNDA:0,_ZStanSt12memory_orderSt23__memory_order_modifier
FN:318,_ZNSt13__atomic_baseIiEppEv
FNDA:0,_ZNSt13__atomic_baseIiEppEv
FN:326,_ZNSt13__atomic_baseIiEmmEv
FNDA:0,_ZNSt13__atomic_baseIiEmmEv
DA:99,0
DA:101,0
DA:318,0
DA:319,0
DA:326,0
DA:327,0
DA:415,0
DA:419,0
end_of_record
SF:/usr/include/x86_64-linux-gnu/qt5/QtCore/qbasicatomic.h
FN:103,_ZNK19QBasicAtomicIntegerIiE4loadEv
FNDA:0,_ZNK19QBasicAtomicIntegerIiE4loadEv
FN:114,_ZN19QBasicAtomicIntegerIiE3refEv
FNDA:0,_ZN19QBasicAtomicIntegerIiE3refEv
FN:115,_ZN19QBasicAtomicIntegerIiE5derefEv
FNDA:0,_ZN19QBasicAtomicIntegerIiE5derefEv
DA:103,0
DA:114,0
DA:115,0
end_of_record
SF:/home/user/Desktop/pobedi-me-ako-znas/application/recko.cpp
FN:3,_ZN5ReckoC2Ev
FNDA:2,_ZN5ReckoC2Ev
FN:9,_ZN5Recko13readQuizWordsEv
FNDA:2,_ZN5Recko13readQuizWordsEv
FN:18,_ZN5Recko9newWordleEv
FNDA:2,_ZN5Recko9newWordleEv
FN:24,_ZN5Recko12getQuizWordsEv
FNDA:0,_ZN5Recko12getQuizWordsEv
FN:29,_ZN5Recko12incrementRowEv
FNDA:14,_ZN5Recko12incrementRowEv
FN:34,_ZN5Recko13getCurrentRowEv
FNDA:93,_ZN5Recko13getCurrentRowEv
FN:39,_ZN5Recko13setCurrentRowEi
FNDA:3,_ZN5Recko13setCurrentRowEi
DA:3,2
DA:5,2
DA:6,2
DA:7,2
DA:9,2
DA:11,4
DA:12,2
DA:13,4
DA:14,2
DA:15,2
DA:16,2
DA:18,2
DA:20,2
DA:21,2
DA:22,2
DA:24,0
DA:26,0
DA:29,14
DA:31,14
DA:32,14
DA:34,93
DA:36,93
DA:39,3
DA:41,3
DA:42,3
end_of_record
SF:/usr/include/x86_64-linux-gnu/qt5/QtCore/qflags.h
FN:120,_ZN6QFlagsIN9QIODevice12OpenModeFlagEEC2ES1_
FNDA:0,_ZN6QFlagsIN9QIODevice12OpenModeFlagEEC2ES1_
DA:120,0
end_of_record
SF:/usr/include/x86_64-linux-gnu/qt5/QtCore/qlist.h
FN:100,_ZN9QListData7disposeEv
FNDA:0,_ZN9QListData7disposeEv
FN:113,_ZNK9QListData4sizeEv
FNDA:0,_ZNK9QListData4sizeEv
FN:115,_ZNK9QListData2atEi
FNDA:0,_ZNK9QListData2atEi
FN:116,_ZNK9QListData5beginEv
FNDA:0,_ZNK9QListData5beginEv
FN:117,_ZNK9QListData3endEv
FNDA:0,_ZNK9QListData3endEv
FN:142,_ZN5QListI7QStringE4Node1tEv
FNDA:0,_ZN5QListI7QStringE4Node1tEv
FN:151,_ZN5QListI7QStringEC2Ev
FNDA:0,_ZN5QListI7QStringEC2Ev
FN:156,_ZN5QListI7QStringEC2EOS1_
FNDA:0,_ZN5QListI7QStringEC2EOS1_
FN:158,_ZN5QListI7QStringEaSEOS1_
FNDA:2,_ZN5QListI7QStringEaSEOS1_
FN:161,_ZN5QListI7QStringE4swapERS1_
FNDA:2,_ZN5QListI7QStringE4swapERS1_
FN:172,_ZN5QListI7QStringE6detachEv
FNDA:0,_ZN5QListI7QStringE6detachEv
FN:346,_ZNK5QListI7QStringE6lengthEv
FNDA:2,_ZNK5QListI7QStringE6lengthEv
FN:459,_ZN5QListI7QStringE9node_copyEPNS1_4NodeES3_S3_
FNDA:0,_ZN5QListI7QStringE9node_copyEPNS1_4NodeES3_S3_
FN:494,_ZN5QListI7QStringE13node_destructEPNS1_4NodeES3_
FNDA:0,_ZN5QListI7QStringE13node_destructEPNS1_4NodeES3_
FN:551,_ZN5QListI7QStringEixEi
FNDA:0,_ZN5QListI7QStringEixEi
FN:786,_ZN5QListI7QStringE13detach_helperEi
FNDA:0,_ZN5QListI7QStringE13detach_helperEi
FN:803,_ZN5QListI7QStringE13detach_helperEv
FNDA:0,_ZN5QListI7QStringE13detach_helperEv
FN:809,_ZN5QListI7QStringEC2ERKS1_
FNDA:0,_ZN5QListI7QStringEC2ERKS1_
FN:827,_ZN5QListI7QStringED2Ev
FNDA:0,_ZN5QListI7QStringED2Ev
FN:866,_ZN5QListI7QStringE7deallocEPN9QListData4DataE
FNDA:0,_ZN5QListI7QStringE7deallocEPN9QListData4DataE
DA:100,0
DA:113,0
DA:115,0
DA:116,0
DA:117,0
DA:142,0
DA:144,0
DA:151,0
DA:156,0
DA:157,0
DA:158,2
DA:159,2
DA:161,2
DA:172,0
DA:346,2
DA:459,0
DA:461,0
DA:477,0
DA:478,0
DA:479,0
DA:480,0
DA:491,0
DA:494,0
DA:499,0
DA:500,0
DA:551,0
DA:553,0
DA:786,0
DA:788,0
DA:789,0
DA:791,0
DA:792,0
DA:793,0
DA:794,0
DA:795,0
DA:798,0
DA:799,0
DA:800,0
DA:803,0
DA:805,0
DA:806,0
DA:809,0
DA:810,0
DA:812,0
DA:813,0
DA:816,0
DA:817,0
DA:818,0
DA:819,0
DA:820,0
DA:821,0
DA:824,0
DA:827,0
DA:829,0
DA:830,0
DA:831,0
DA:866,0
DA:868,0
DA:869,0
DA:870,0
DA:871,0
end_of_record
SF:/usr/include/x86_64-linux-gnu/qt5/QtCore/qrefcount.h
FN:54,_ZN9QtPrivate8RefCount3refEv
FNDA:0,_ZN9QtPrivate8RefCount3refEv
FN:65,_ZN9QtPrivate8RefCount5derefEv
FNDA:0,_ZN9QtPrivate8RefCount5derefEv
FN:99,_ZNK9QtPrivate8RefCount8isSharedEv
FNDA:0,_ZNK9QtPrivate8RefCount8isSharedEv
DA:54,0
DA:55,0
DA:57,0
DA:58,0
DA:60,0
DA:61,0
DA:62,0
DA:65,0
DA:66,0
DA:68,0
DA:69,0
DA:71,0
DA:72,0
DA:73,0
DA:99,0
DA:101,0
DA:102,0
end_of_record
TN:
SF:/usr/include/x86_64-linux-gnu/qt5/QtCore/qatomic.h
FN:60,_ZN14QAtomicIntegerIiEC2Ei
FNDA:0,_ZN14QAtomicIntegerIiEC2Ei
FN:162,_ZN10QAtomicIntC2Ei
FNDA:0,_ZN10QAtomicIntC2Ei
DA:60,0
DA:162,0
end_of_record
SF:/usr/include/x86_64-linux-gnu/qt5/QtCore/qshareddata.h
FN:233,_ZN28QExplicitlySharedDataPointerI15QPlatformPixmapE4swapERS1_
FNDA:0,_ZN28QExplicitlySharedDataPointerI15QPlatformPixmapE4swapERS1_
FN:304,_Z5qSwapI15QPlatformPixmapEvR28QExplicitlySharedDataPointerIT_ES4_
FNDA:0,_Z5qSwapI15QPlatformPixmapEvR28QExplicitlySharedDataPointerIT_ES4_
DA:233,0
DA:234,0
DA:304,0
DA:305,0
end_of_record
SF:/usr/include/x86_64-linux-gnu/qt5/QtCore/qlist.h
FN:100,_ZN9QListData7disposeEv
FNDA:0,_ZN9QListData7disposeEv
FN:113,_ZNK9QListData4sizeEv
FNDA:0,_ZNK9QListData4sizeEv
FN:115,_ZNK9QListData2atEi
FNDA:0,_ZNK9QListData2atEi
FN:116,_ZNK9QListData5beginEv
FNDA:0,_ZNK9QListData5beginEv
FN:117,_ZNK9QListData3endEv
FNDA:0,_ZNK9QListData3endEv
FN:142,_ZN5QListI7QStringE4Node1tEv
FNDA:0,_ZN5QListI7QStringE4Node1tEv
FN:170,_ZNK5QListI7QStringE4sizeEv
FNDA:0,_ZNK5QListI7QStringE4sizeEv
FN:172,_ZN5QListI7QStringE6detachEv
FNDA:0,_ZN5QListI7QStringE6detachEv
FN:235,_ZN5QListI7QStringE8iteratorC2EPNS1_4NodeE
FNDA:0,_ZN5QListI7QStringE8iteratorC2EPNS1_4NodeE
FN:241,_ZNK5QListI7QStringE8iteratordeEv
FNDA:0,_ZNK5QListI7QStringE8iteratordeEv
FN:245,_ZNK5QListI7QStringE8iteratorneERKS2_
FNDA:0,_ZNK5QListI7QStringE8iteratorneERKS2_
FN:264,_ZN5QListI7QStringE8iteratorppEv
FNDA:0,_ZN5QListI7QStringE8iteratorppEv
FN:324,_ZN5QListI7QStringE5beginEv
FNDA:0,_ZN5QListI7QStringE5beginEv
FN:328,_ZN5QListI7QStringE3endEv
FNDA:0,_ZN5QListI7QStringE3endEv
FN:459,_ZN5QListI7QStringE9node_copyEPNS1_4NodeES3_S3_
FNDA:0,_ZN5QListI7QStringE9node_copyEPNS1_4NodeES3_S3_
FN:494,_ZN5QListI7QStringE13node_destructEPNS1_4NodeES3_
FNDA:0,_ZN5QListI7QStringE13node_destructEPNS1_4NodeES3_
FN:551,_ZN5QListI7QStringEixEi
FNDA:67,_ZN5QListI7QStringEixEi
FN:786,_ZN5QListI7QStringE13detach_helperEi
FNDA:0,_ZN5QListI7QStringE13detach_helperEi
FN:803,_ZN5QListI7QStringE13detach_helperEv
FNDA:0,_ZN5QListI7QStringE13detach_helperEv
FN:827,_ZN5QListI7QStringED2Ev
FNDA:0,_ZN5QListI7QStringED2Ev
FN:866,_ZN5QListI7QStringE7deallocEPN9QListData4DataE
FNDA:0,_ZN5QListI7QStringE7deallocEPN9QListData4DataE
DA:100,0
DA:113,0
DA:115,0
DA:116,0
DA:117,0
DA:142,0
DA:144,0
DA:170,0
DA:172,0
DA:235,0
DA:241,0
DA:245,0
DA:264,0
DA:324,0
DA:328,0
DA:459,0
DA:461,0
DA:477,0
DA:478,0
DA:479,0
DA:480,0
DA:491,0
DA:494,0
DA:499,0
DA:500,0
DA:551,67
DA:553,67
DA:786,0
DA:788,0
DA:789,0
DA:791,0
DA:792,0
DA:793,0
DA:794,0
DA:795,0
DA:798,0
DA:799,0
DA:800,0
DA:803,0
DA:805,0
DA:806,0
DA:827,0
DA:829,0
DA:830,0
DA:831,0
DA:866,0
DA:868,0
DA:869,0
DA:870,0
DA:871,0
end_of_record
SF:/usr/include/x86_64-linux-gnu/qt5/QtCore/qflags.h
FN:120,_ZN6QFlagsIN10QArrayData16AllocationOptionEEC2ES1_
FNDA:0,_ZN6QFlagsIN10QArrayData16AllocationOptionEEC2ES1_
FN:120,_ZN6QFlagsIN2Qt19TextInteractionFlagEEC2ES1_
FNDA:2,_ZN6QFlagsIN2Qt19TextInteractionFlagEEC2ES1_
FN:120,_ZN6QFlagsIN2Qt15InputMethodHintEEC2ES1_
FNDA:2,_ZN6QFlagsIN2Qt15InputMethodHintEEC2ES1_
FN:120,_ZN6QFlagsIN2Qt19ImageConversionFlagEEC2ES1_
FNDA:0,_ZN6QFlagsIN2Qt19ImageConversionFlagEEC2ES1_
FN:120,_ZN6QFlagsIN2Qt13AlignmentFlagEEC2ES1_
FNDA:0,_ZN6QFlagsIN2Qt13AlignmentFlagEEC2ES1_
FN:121,_ZN6QFlagsIN2Qt13AlignmentFlagEEC2EMNS2_7PrivateEi
FNDA:0,_ZN6QFlagsIN2Qt13AlignmentFlagEEC2EMNS2_7PrivateEi
FN:121,_ZN6QFlagsIN2Qt10WindowTypeEEC2EMNS2_7PrivateEi
FNDA:0,_ZN6QFlagsIN2Qt10WindowTypeEEC2EMNS2_7PrivateEi
DA:120,0
DA:120,2
DA:120,2
DA:120,0
DA:120,0
DA:121,0
DA:121,0
end_of_record
SF:/usr/include/x86_64-linux-gnu/qt5/QtCore/qlogging.h
FN:68,_ZN18QMessageLogContextC2EPKciS1_S1_
FNDA:0,_ZN18QMessageLogContextC2EPKciS1_S1_
FN:91,_ZN14QMessageLoggerC2EPKciS1_
FNDA:0,_ZN14QMessageLoggerC2EPKciS1_
DA:68,0
DA:69,0
DA:91,0
DA:92,0
end_of_record
SF:/usr/include/x86_64-linux-gnu/qt5/QtCore/qobject.h
FN:228,_ZN7QObject7connectIM7MojbrojFvvES3_EEN11QMetaObject10ConnectionEPKN9QtPrivate15FunctionPointerIT_E6ObjectES8_PKNS7_IT0_E6ObjectESD_N2Qt14ConnectionTypeE
FNDA:4,_ZN7QObject7connectIM7MojbrojFvvES3_EEN11QMetaObject10ConnectionEPKN9QtPrivate15FunctionPointerIT_E6ObjectES8_PKNS7_IT0_E6ObjectESD_N2Qt14ConnectionTypeE
FN:499,_Z12qobject_castIP11QPushButtonET_P7QObject
FNDA:51,_Z12qobject_castIP11QPushButtonET_P7QObject
DA:228,4
DA:246,4
DA:247,4
DA:248,0
DA:252,4
DA:254,4
DA:499,51
DA:504,51
end_of_record
SF:/usr/include/x86_64-linux-gnu/qt5/QtCore/qrefcount.h
FN:54,_ZN9QtPrivate8RefCount3refEv
FNDA:0,_ZN9QtPrivate8RefCount3refEv
FN:65,_ZN9QtPrivate8RefCount5derefEv
FNDA:0,_ZN9QtPrivate8RefCount5derefEv
FN:99,_ZNK9QtPrivate8RefCount8isSharedEv
FNDA:0,_ZNK9QtPrivate8RefCount8isSharedEv
DA:54,0
DA:55,0
DA:57,0
DA:58,0
DA:60,0
DA:61,0
DA:62,0
DA:65,0
DA:66,0
DA:68,0
DA:69,0
DA:71,0
DA:72,0
DA:73,0
DA:99,0
DA:101,0
DA:102,0
end_of_record
SF:/usr/include/x86_64-linux-gnu/qt5/QtCore/qvector.h
FN:69,_ZN7QVectorIiEC2Ev
FNDA:0,_ZN7QVectorIiEC2Ev
FN:73,_ZN7QVectorIiED2Ev
FNDA:0,_ZN7QVectorIiED2Ev
FN:73,_ZN7QVectorI7QStringED2Ev
FNDA:12,_ZN7QVectorI7QStringED2Ev
FN:80,_ZN7QVectorIiE4swapERS0_
FNDA:7,_ZN7QVectorIiE4swapERS0_
FN:89,_ZNK7QVectorI7QStringE7isEmptyEv
FNDA:4,_ZNK7QVectorI7QStringE7isEmptyEv
FN:106,_ZNK7QVectorI7QStringE10isDetachedEv
FNDA:4,_ZNK7QVectorI7QStringE10isDetachedEv
FN:106,_ZNK7QVectorIiE10isDetachedEv
FNDA:0,_ZNK7QVectorIiE10isDetachedEv
FN:127,_ZN7QVectorIiE4dataEv
FNDA:0,_ZN7QVectorIiE4dataEv
FN:209,_ZN7QVectorI7QStringE3endEv
FNDA:0,_ZN7QVectorI7QStringE3endEv
FN:240,_ZN7QVectorI7QStringE4lastEv
FNDA:0,_ZN7QVectorI7QStringE4lastEv
FN:272,_ZN7QVectorI7QStringE4backEv
FNDA:0,_ZN7QVectorI7QStringE4backEv
FN:324,_ZN7QVectorI7QStringE16defaultConstructEPS0_S2_
FNDA:0,_ZN7QVectorI7QStringE16defaultConstructEPS0_S2_
FN:324,_ZN7QVectorIiE16defaultConstructEPiS1_
FNDA:0,_ZN7QVectorIiE16defaultConstructEPiS1_
FN:336,_ZN7QVectorIiE13copyConstructEPKiS2_Pi
FNDA:0,_ZN7QVectorIiE13copyConstructEPKiS2_Pi
FN:336,_ZN7QVectorI7QStringE13copyConstructEPKS0_S3_PS0_
FNDA:2,_ZN7QVectorI7QStringE13copyConstructEPKS0_S3_PS0_
FN:347,_ZN7QVectorIiE8destructEPiS1_
FNDA:0,_ZN7QVectorIiE8destructEPiS1_
FN:347,_ZN7QVectorI7QStringE8destructEPS0_S2_
FNDA:8,_ZN7QVectorI7QStringE8destructEPS0_S2_
FN:357,_ZN7QVectorI7QStringEC2ERKS1_
FNDA:4,_ZN7QVectorI7QStringEC2ERKS1_
FN:357,_ZN7QVectorIiEC2ERKS0_
FNDA:14,_ZN7QVectorIiEC2ERKS0_
FN:382,_ZN7QVectorI7QStringE6detachEv
FNDA:0,_ZN7QVectorI7QStringE6detachEv
FN:382,_ZN7QVectorIiE6detachEv
FNDA:0,_ZN7QVectorIiE6detachEv
FN:436,_ZN7QVectorIiEixEi
FNDA:0,_ZN7QVectorIiEixEi
FN:475,_ZN7QVectorIiEaSERKS0_
FNDA:7,_ZN7QVectorIiEaSERKS0_
FN:540,_ZN7QVectorIiE8freeDataEP15QTypedArrayDataIiE
FNDA:0,_ZN7QVectorIiE8freeDataEP15QTypedArrayDataIiE
FN:540,_ZN7QVectorI7QStringE8freeDataEP15QTypedArrayDataIS0_E
FNDA:6,_ZN7QVectorI7QStringE8freeDataEP15QTypedArrayDataIS0_E
FN:552,_ZN7QVectorIiE11reallocDataEii6QFlagsIN10QArrayData16AllocationOptionEE
FNDA:0,_ZN7QVectorIiE11reallocDataEii6QFlagsIN10QArrayData16AllocationOptionEE
FN:552,_ZN7QVectorI7QStringE11reallocDataEii6QFlagsIN10QArrayData16AllocationOptionEE
FNDA:6,_ZN7QVectorI7QStringE11reallocDataEii6QFlagsIN10QArrayData16AllocationOptionEE
FN:700,_ZN7QVectorIiE6appendEOi
FNDA:42,_ZN7QVectorIiE6appendEOi
DA:69,0
DA:73,12
DA:73,0
DA:80,7
DA:89,4
DA:106,4
DA:106,0
DA:127,0
DA:209,0
DA:240,0
DA:272,0
DA:324,0
DA:327,0
DA:328,0
DA:333,0
DA:324,0
DA:331,0
DA:333,0
DA:336,0
DA:342,0
DA:344,0
DA:336,2
DA:339,14
DA:340,12
DA:344,2
DA:347,24
DA:350,24
DA:351,16
DA:354,8
DA:347,0
DA:354,0
DA:357,14
DA:359,14
DA:360,14
DA:362,0
DA:363,0
DA:364,0
DA:365,0
DA:367,0
DA:368,0
DA:370,0
DA:371,0
DA:372,0
DA:375,14
DA:357,4
DA:359,4
DA:360,4
DA:362,0
DA:363,0
DA:364,0
DA:365,0
DA:367,0
DA:368,0
DA:370,0
DA:371,0
DA:372,0
DA:375,4
DA:382,0
DA:384,0
DA:386,0
DA:387,0
DA:390,0
DA:393,0
DA:382,0
DA:384,0
DA:386,0
DA:387,0
DA:390,0
DA:393,0
DA:436,0
DA:438,0
DA:475,7
DA:477,7
DA:478,14
DA:479,7
DA:481,7
DA:540,6
DA:542,6
DA:543,6
DA:544,6
DA:540,0
DA:542,0
DA:543,0
DA:544,0
DA:552,6
DA:555,6
DA:557,6
DA:559,6
DA:560,6
DA:563,4
DA:564,4
DA:570,4
DA:572,4
DA:573,4
DA:574,4
DA:576,4
DA:578,4
DA:580,4
DA:581,0
DA:583,0
DA:584,0
DA:592,0
DA:593,0
DA:596,0
DA:597,0
DA:600,4
DA:606,0
DA:607,0
DA:608,0
DA:610,0
DA:611,0
DA:615,0
DA:616,0
DA:617,0
DA:619,4
DA:624,2
DA:625,2
DA:627,0
DA:629,2
DA:632,0
DA:634,6
DA:635,4
DA:636,0
DA:639,0
DA:641,0
DA:644,4
DA:655,6
DA:552,0
DA:555,0
DA:557,0
DA:559,0
DA:560,0
DA:563,0
DA:564,0
DA:570,0
DA:572,0
DA:573,0
DA:574,0
DA:592,0
DA:593,0
DA:596,0
DA:597,0
DA:600,0
DA:603,0
DA:615,0
DA:616,0
DA:617,0
DA:619,0
DA:624,0
DA:625,0
DA:627,0
DA:629,0
DA:632,0
DA:634,0
DA:635,0
DA:636,0
DA:639,0
DA:641,0
DA:644,0
DA:655,0
DA:700,42
DA:702,42
DA:703,42
DA:704,14
DA:705,14
DA:708,42
DA:710,42
DA:711,42
end_of_record
SF:/usr/include/c++/9/bits/atomic_base.h
FN:99,_ZStanSt12memory_orderSt23__memory_order_modifier
FNDA:0,_ZStanSt12memory_orderSt23__memory_order_modifier
FN:279,_ZNSt13__atomic_baseIiEC2Ei
FNDA:0,_ZNSt13__atomic_baseIiEC2Ei
FN:318,_ZNSt13__atomic_baseIiEppEv
FNDA:0,_ZNSt13__atomic_baseIiEppEv
FN:326,_ZNSt13__atomic_baseIiEmmEv
FNDA:0,_ZNSt13__atomic_baseIiEmmEv
DA:99,0
DA:101,0
DA:279,0
DA:318,0
DA:319,0
DA:326,0
DA:327,0
DA:415,0
DA:419,0
end_of_record
SF:/usr/include/x86_64-linux-gnu/qt5/QtWidgets/qsizepolicy.h
FN:116,_ZN11QSizePolicyC2ENS_6PolicyES0_NS_11ControlTypeE
FNDA:58,_ZN11QSizePolicyC2ENS_6PolicyES0_NS_11ControlTypeE
FN:180,_ZN11QSizePolicy23toControlTypeFieldValueENS_11ControlTypeE
FNDA:0,_ZN11QSizePolicy23toControlTypeFieldValueENS_11ControlTypeE
DA:116,58
DA:117,58
DA:118,58
DA:119,58
DA:180,0
DA:196,0
end_of_record
SF:/usr/include/x86_64-linux-gnu/qt5/QtCore/qobject_impl.h
FN:73,_ZN9QtPrivate15ConnectionTypesINS_4ListIJEEELb1EE5typesEv
FNDA:0,_ZN9QtPrivate15ConnectionTypesINS_4ListIJEEELb1EE5typesEv
DA:73,0
end_of_record
SF:/usr/include/x86_64-linux-gnu/qt5/QtCore/qbasicatomic.h
FN:103,_ZNK19QBasicAtomicIntegerIiE4loadEv
FNDA:0,_ZNK19QBasicAtomicIntegerIiE4loadEv
FN:114,_ZN19QBasicAtomicIntegerIiE3refEv
FNDA:0,_ZN19QBasicAtomicIntegerIiE3refEv
FN:115,_ZN19QBasicAtomicIntegerIiE5derefEv
FNDA:0,_ZN19QBasicAtomicIntegerIiE5derefEv
FN:221,_ZN19QBasicAtomicIntegerIiEC2Ei
FNDA:0,_ZN19QBasicAtomicIntegerIiEC2Ei
DA:103,0
DA:114,0
DA:115,0
DA:221,0
end_of_record
SF:/usr/include/x86_64-linux-gnu/qt5/QtCore/qobjectdefs_impl.h
FN:88,_ZN9QtPrivate16ApplyReturnValueIvEC2EPv
FNDA:0,_ZN9QtPrivate16ApplyReturnValueIvEC2EPv
FN:151,_ZN9QtPrivate11FunctorCallINS_11IndexesListIJEEENS_4ListIJEEEvM7MojbrojFvvEE4callES7_PS5_PPv
FNDA:0,_ZN9QtPrivate11FunctorCallINS_11IndexesListIJEEENS_4ListIJEEEvM7MojbrojFvvEE4callES7_PS5_PPv
FN:184,_ZN9QtPrivate15FunctionPointerIM7MojbrojFvvEE4callINS_4ListIJEEEvEEvS3_PS1_PPv
FNDA:0,_ZN9QtPrivate15FunctionPointerIM7MojbrojFvvEE4callINS_4ListIJEEEvEEvS3_PS1_PPv
FN:387,_ZN9QtPrivate15QSlotObjectBaseC2EPFviPS0_P7QObjectPPvPbE
FNDA:0,_ZN9QtPrivate15QSlotObjectBaseC2EPFviPS0_P7QObjectPPvPbE
FN:396,_ZN9QtPrivate15QSlotObjectBaseD2Ev
FNDA:0,_ZN9QtPrivate15QSlotObjectBaseD2Ev
FN:407,_ZN9QtPrivate11QSlotObjectIM7MojbrojFvvENS_4ListIJEEEvE4implEiPNS_15QSlotObjectBaseEP7QObjectPPvPb
FNDA:4,_ZN9QtPrivate11QSlotObjectIM7MojbrojFvvENS_4ListIJEEEvE4implEiPNS_15QSlotObjectBaseEP7QObjectPPvPb
FN:423,_ZN9QtPrivate11QSlotObjectIM7MojbrojFvvENS_4ListIJEEEvEC2ES3_
FNDA:4,_ZN9QtPrivate11QSlotObjectIM7MojbrojFvvENS_4ListIJEEEvEC2ES3_
DA:88,0
DA:151,0
DA:152,0
DA:153,0
DA:184,0
DA:185,0
DA:186,0
DA:387,0
DA:396,0
DA:407,4
DA:409,4
DA:410,4
DA:411,4
DA:412,4
DA:413,0
DA:414,0
DA:415,0
DA:416,0
DA:417,0
DA:418,0
DA:419,4
DA:421,4
DA:423,4
end_of_record
SF:/usr/include/x86_64-linux-gnu/qt5/QtGui/qfont.h
FN:341,_ZN5QFont7setBoldEb
FNDA:0,_ZN5QFont7setBoldEb
FN:349,_ZN5QFont9setItalicEb
FNDA:4,_ZN5QFont9setItalicEb
DA:341,0
DA:342,0
DA:349,4
DA:350,4
DA:351,4
end_of_record
SF:/usr/include/x86_64-linux-gnu/qt5/QtCore/qglobal.h
FN:911,_Z5qSwapIP15QTypedArrayDataIiEEvRT_S4_
FNDA:7,_Z5qSwapIP15QTypedArrayDataIiEEvRT_S4_
FN:911,_Z5qSwapIP15QPlatformPixmapEvRT_S3_
FNDA:0,_Z5qSwapIP15QPlatformPixmapEvRT_S3_
FN:911,_Z5qSwapIP15QTypedArrayDataItEEvRT_S4_
FNDA:10,_Z5qSwapIP15QTypedArrayDataItEEvRT_S4_
DA:911,7
DA:915,7
DA:916,7
DA:911,0
DA:915,0
DA:916,0
DA:911,10
DA:915,10
DA:916,10
end_of_record
SF:/usr/include/x86_64-linux-gnu/qt5/QtGui/qpixmap.h
FN:77,_ZN7QPixmapaSEOS_
FNDA:0,_ZN7QPixmapaSEOS_
DA:77,0
DA:78,0
end_of_record
SF:/usr/include/x86_64-linux-gnu/qt5/QtGui/qpalette.h
FN:200,_ZN8QPalette8setBrushENS_9ColorRoleERK6QBrush
FNDA:0,_ZN8QPalette8setBrushENS_9ColorRoleERK6QBrush
DA:200,0
DA:201,0
end_of_record
SF:/usr/include/x86_64-linux-gnu/qt5/QtCore/qatomic_cxx11.h
FN:225,_ZN10QAtomicOpsIiE4loadIiEET_RKSt6atomicIS2_E
FNDA:0,_ZN10QAtomicOpsIiE4loadIiEET_RKSt6atomicIS2_E
FN:263,_ZN10QAtomicOpsIiE3refIiEEbRSt6atomicIT_E
FNDA:0,_ZN10QAtomicOpsIiE3refIiEEbRSt6atomicIT_E
FN:269,_ZN10QAtomicOpsIiE5derefIiEEbRSt6atomicIT_E
FNDA:0,_ZN10QAtomicOpsIiE5derefIiEEbRSt6atomicIT_E
DA:225,0
DA:227,0
DA:263,0
DA:265,0
DA:269,0
DA:271,0
end_of_record
SF:/home/user/Desktop/pobedi-me-ako-znas/application/mojbrojlogic.h
FN:19,_ZN12MojBrojLogicD2Ev
FNDA:2,_ZN12MojBrojLogicD2Ev
DA:19,2
end_of_record
SF:/usr/include/x86_64-linux-gnu/qt5/QtCore/qchar.h
FN:86,_ZN5QCharC2Ei
FNDA:0,_ZN5QCharC2Ei
DA:86,0
end_of_record
SF:/usr/include/x86_64-linux-gnu/qt5/QtGui/qcolor.h
FN:286,_ZN6QColorC2Eiiii
FNDA:0,_ZN6QColorC2Eiiii
DA:286,0
DA:287,0
end_of_record
SF:/usr/include/x86_64-linux-gnu/qt5/QtCore/qbytearray.h
FN:76,_Z8qstrnlenPKcj
FNDA:0,_Z8qstrnlenPKcj
FN:476,_ZN10QByteArrayD2Ev
FNDA:0,_ZN10QByteArrayD2Ev
FN:477,_ZNK10QByteArray4sizeEv
FNDA:0,_ZNK10QByteArray4sizeEv
FN:497,_ZNK10QByteArray4dataEv
FNDA:0,_ZNK10QByteArray4dataEv
FN:499,_ZNK10QByteArray9constDataEv
FNDA:0,_ZNK10QByteArray9constDataEv
FN:505,_ZN10QByteArrayC2ERKS_
FNDA:30,_ZN10QByteArrayC2ERKS_
FN:590,_ZN10QByteArraypLEPKc
FNDA:10,_ZN10QByteArraypLEPKc
FN:592,_ZN10QByteArraypLERKS_
FNDA:10,_ZN10QByteArraypLERKS_
FN:659,_ZplRK10QByteArrayPKc
FNDA:10,_ZplRK10QByteArrayPKc
FN:663,_ZplPKcRK10QByteArray
FNDA:10,_ZplPKcRK10QByteArray
DA:76,0
DA:78,0
DA:79,0
DA:80,0
DA:81,0
DA:83,0
DA:476,0
DA:477,0
DA:478,0
DA:497,0
DA:498,0
DA:499,0
DA:500,0
DA:505,30
DA:506,30
DA:590,10
DA:591,10
DA:592,10
DA:593,10
DA:659,10
DA:660,10
DA:663,10
DA:664,10
end_of_record
SF:/usr/include/x86_64-linux-gnu/qt5/QtCore/qrect.h
FN:60,_ZN5QRectC2Ev
FNDA:58,_ZN5QRectC2Ev
FN:184,_ZN5QRectC2Eiiii
FNDA:0,_ZN5QRectC2Eiiii
FN:265,_ZNK5QRect5widthEv
FNDA:0,_ZNK5QRect5widthEv
FN:268,_ZNK5QRect6heightEv
FNDA:0,_ZNK5QRect6heightEv
FN:271,_ZNK5QRect4sizeEv
FNDA:0,_ZNK5QRect4sizeEv
DA:60,58
DA:184,0
DA:185,0
DA:265,0
DA:266,0
DA:268,0
DA:269,0
DA:271,0
DA:272,0
end_of_record
SF:/usr/include/x86_64-linux-gnu/qt5/QtCore/qstring.h
FN:234,_ZN7QStringC2EOS_
FNDA:4,_ZN7QStringC2EOS_
FN:235,_ZN7QStringaSEOS_
FNDA:10,_ZN7QStringaSEOS_
FN:239,_ZNK7QString4sizeEv
FNDA:0,_ZNK7QString4sizeEv
FN:483,_ZN7QStringpLERKS_
FNDA:0,_ZN7QStringpLERKS_
FN:549,_ZNKR7QString6toUtf8Ev
FNDA:0,_ZNKR7QString6toUtf8Ev
FN:570,_ZN7QString8fromUtf8EPKci
FNDA:0,_ZN7QString8fromUtf8EPKci
FN:580,_ZN7QString8fromUtf8ERK10QByteArray
FNDA:0,_ZN7QString8fromUtf8ERK10QByteArray
FN:699,_ZN7QStringC2EPKc
FNDA:0,_ZN7QStringC2EPKc
FN:702,_ZN7QStringC2ERK10QByteArray
FNDA:12,_ZN7QStringC2ERK10QByteArray
FN:705,_ZN7QStringaSEPKc
FNDA:2,_ZN7QStringaSEPKc
FN:933,_ZNK7QString6lengthEv
FNDA:0,_ZNK7QString6lengthEv
FN:941,_ZNK7QString7isEmptyEv
FNDA:0,_ZNK7QString7isEmptyEv
FN:949,_ZNK7QString9constDataEv
FNDA:0,_ZNK7QString9constDataEv
FN:957,_ZN7QStringC2ERKS_
FNDA:0,_ZN7QStringC2ERKS_
FN:1134,_ZN7QStringC2Ev
FNDA:0,_ZN7QStringC2Ev
FN:1135,_ZN7QStringD2Ev
FNDA:0,_ZN7QStringD2Ev
FN:1237,_ZNK7QStringeqEPKc
FNDA:0,_ZNK7QStringeqEPKc
FN:1349,_ZplRK7QStringS1_
FNDA:0,_ZplRK7QStringS1_
FN:1356,_ZplRK7QStringPKc
FNDA:0,_ZplRK7QStringPKc
FN:1358,_ZplPKcRK7QString
FNDA:0,_ZplPKcRK7QString
DA:234,4
DA:235,10
DA:236,10
DA:239,0
DA:483,0
DA:549,0
DA:550,0
DA:570,0
DA:572,0
DA:580,0
DA:581,0
DA:699,0
DA:700,0
DA:701,0
DA:702,12
DA:703,12
DA:704,12
DA:705,2
DA:706,2
DA:933,0
DA:934,0
DA:941,0
DA:942,0
DA:949,0
DA:950,0
DA:957,0
DA:958,0
DA:1134,0
DA:1135,0
DA:1237,0
DA:1238,0
DA:1349,0
DA:1350,0
DA:1356,0
DA:1357,0
DA:1358,0
DA:1359,0
end_of_record
SF:/usr/include/x86_64-linux-gnu/qt5/QtWidgets/qlayoutitem.h
FN:89,_ZN11QLayoutItemC2E6QFlagsIN2Qt13AlignmentFlagEE
FNDA:58,_ZN11QLayoutItemC2E6QFlagsIN2Qt13AlignmentFlagEE
FN:95,_ZN11QSpacerItemC2EiiN11QSizePolicy6PolicyES1_
FNDA:58,_ZN11QSpacerItemC2EiiN11QSizePolicy6PolicyES1_
DA:89,58
DA:90,58
DA:95,58
DA:98,58
end_of_record
SF:/usr/include/x86_64-linux-gnu/qt5/QtCore/qarraydata.h
FN:57,_ZN10QArrayData4dataEv
FNDA:0,_ZN10QArrayData4dataEv
FN:123,_ZN10QArrayData10sharedNullEv
FNDA:0,_ZN10QArrayData10sharedNullEv
FN:208,_ZN15QTypedArrayDataIiE4dataEv
FNDA:0,_ZN15QTypedArrayDataIiE4dataEv
FN:208,_ZN15QTypedArrayDataI7QStringE4dataEv
FNDA:34,_ZN15QTypedArrayDataI7QStringE4dataEv
FN:208,_ZN15QTypedArrayDataIcE4dataEv
FNDA:0,_ZN15QTypedArrayDataIcE4dataEv
FN:208,_ZN15QTypedArrayDataItE4dataEv
FNDA:0,_ZN15QTypedArrayDataItE4dataEv
FN:211,_ZN15QTypedArrayDataIiE5beginEPi
FNDA:0,_ZN15QTypedArrayDataIiE5beginEPi
FN:211,_ZN15QTypedArrayDataI7QStringE5beginEPS0_
FNDA:22,_ZN15QTypedArrayDataI7QStringE5beginEPS0_
FN:212,_ZN15QTypedArrayDataIiE3endEPi
FNDA:0,_ZN15QTypedArrayDataIiE3endEPi
FN:212,_ZN15QTypedArrayDataI7QStringE3endEPS0_
FNDA:12,_ZN15QTypedArrayDataI7QStringE3endEPS0_
FN:220,_ZN15QTypedArrayDataIiE8allocateEm6QFlagsIN10QArrayData16AllocationOptionEE
FNDA:0,_ZN15QTypedArrayDataIiE8allocateEm6QFlagsIN10QArrayData16AllocationOptionEE
FN:220,_ZN15QTypedArrayDataI7QStringE8allocateEm6QFlagsIN10QArrayData16AllocationOptionEE
FNDA:6,_ZN15QTypedArrayDataI7QStringE8allocateEm6QFlagsIN10QArrayData16AllocationOptionEE
FN:236,_ZN15QTypedArrayDataItE10deallocateEP10QArrayData
FNDA:0,_ZN15QTypedArrayDataItE10deallocateEP10QArrayData
FN:236,_ZN15QTypedArrayDataIiE10deallocateEP10QArrayData
FNDA:0,_ZN15QTypedArrayDataIiE10deallocateEP10QArrayData
FN:236,_ZN15QTypedArrayDataI7QStringE10deallocateEP10QArrayData
FNDA:6,_ZN15QTypedArrayDataI7QStringE10deallocateEP10QArrayData
FN:236,_ZN15QTypedArrayDataIcE10deallocateEP10QArrayData
FNDA:0,_ZN15QTypedArrayDataIcE10deallocateEP10QArrayData
FN:257,_ZN15QTypedArrayDataI7QStringE10sharedNullEv
FNDA:6,_ZN15QTypedArrayDataI7QStringE10sharedNullEv
FN:257,_ZN15QTypedArrayDataIiE10sharedNullEv
FNDA:0,_ZN15QTypedArrayDataIiE10sharedNullEv
FN:257,_ZN15QTypedArrayDataItE10sharedNullEv
FNDA:0,_ZN15QTypedArrayDataItE10sharedNullEv
FN:270,_ZN15QTypedArrayDataIiE15unsharableEmptyEv
FNDA:0,_ZN15QTypedArrayDataIiE15unsharableEmptyEv
FN:270,_ZN15QTypedArrayDataI7QStringE15unsharableEmptyEv
FNDA:0,_ZN15QTypedArrayDataI7QStringE15unsharableEmptyEv
DA:57,0
DA:61,0
DA:123,0
DA:208,0
DA:208,34
DA:208,0
DA:208,0
DA:211,0
DA:211,22
DA:212,0
DA:212,12
DA:220,0
DA:224,0
DA:225,0
DA:220,6
DA:224,6
DA:225,6
DA:236,6
DA:239,6
DA:240,6
DA:236,0
DA:239,0
DA:240,0
DA:236,0
DA:239,0
DA:240,0
DA:236,0
DA:239,0
DA:240,0
DA:257,6
DA:260,6
DA:257,0
DA:260,0
DA:257,0
DA:260,0
DA:270,0
DA:273,0
DA:270,0
DA:273,0
end_of_record
SF:/usr/include/x86_64-linux-gnu/qt5/QtCore/qstringlist.h
FN:69,_ZN19QListSpecialMethodsI7QStringED2Ev
FNDA:0,_ZN19QListSpecialMethodsI7QStringED2Ev
DA:69,0
end_of_record
SF:/usr/include/x86_64-linux-gnu/qt5/QtCore/qsize.h
FN:119,_ZN5QSizeC2Eii
FNDA:0,_ZN5QSizeC2Eii
FN:130,_ZNK5QSize5widthEv
FNDA:0,_ZNK5QSize5widthEv
FN:133,_ZNK5QSize6heightEv
FNDA:0,_ZNK5QSize6heightEv
DA:119,0
DA:130,0
DA:131,0
DA:133,0
DA:134,0
end_of_record
SF:/home/user/Desktop/pobedi-me-ako-znas/application/mojbroj.h
end_of_record
SF:/usr/include/x86_64-linux-gnu/qt5/QtCore/qiodevice.h
FN:136,_ZN9QIODevice5writeERK10QByteArray
FNDA:0,_ZN9QIODevice5writeERK10QByteArray
DA:136,0
DA:137,0
end_of_record
SF:/usr/include/c++/9/bits/move.h
FN:99,_ZSt4moveIRP15QTypedArrayDataIiEEONSt16remove_referenceIT_E4typeEOS5_
FNDA:21,_ZSt4moveIRP15QTypedArrayDataIiEEONSt16remove_referenceIT_E4typeEOS5_
FN:99,_ZSt4moveIRP15QPlatformPixmapEONSt16remove_referenceIT_E4typeEOS4_
FNDA:0,_ZSt4moveIRP15QPlatformPixmapEONSt16remove_referenceIT_E4typeEOS4_
FN:99,_ZSt4moveIRiEONSt16remove_referenceIT_E4typeEOS2_
FNDA:0,_ZSt4moveIRiEONSt16remove_referenceIT_E4typeEOS2_
FN:99,_ZSt4moveIRP15QTypedArrayDataItEEONSt16remove_referenceIT_E4typeEOS5_
FNDA:30,_ZSt4moveIRP15QTypedArrayDataItEEONSt16remove_referenceIT_E4typeEOS5_
FN:99,_ZSt4moveIR7QStringEONSt16remove_referenceIT_E4typeEOS3_
FNDA:8,_ZSt4moveIR7QStringEONSt16remove_referenceIT_E4typeEOS3_
FN:182,_ZSt4swapIP15QTypedArrayDataIiEENSt9enable_ifIXsrSt6__and_IJSt6__not_ISt15__is_tuple_likeIT_EESt21is_move_constructibleIS7_ESt18is_move_assignableIS7_EEE5valueEvE4typeERS7_SH_
FNDA:7,_ZSt4swapIP15QTypedArrayDataIiEENSt9enable_ifIXsrSt6__and_IJSt6__not_ISt15__is_tuple_likeIT_EESt21is_move_constructibleIS7_ESt18is_move_assignableIS7_EEE5valueEvE4typeERS7_SH_
FN:182,_ZSt4swapIP15QPlatformPixmapENSt9enable_ifIXsrSt6__and_IJSt6__not_ISt15__is_tuple_likeIT_EESt21is_move_constructibleIS6_ESt18is_move_assignableIS6_EEE5valueEvE4typeERS6_SG_
FNDA:0,_ZSt4swapIP15QPlatformPixmapENSt9enable_ifIXsrSt6__and_IJSt6__not_ISt15__is_tuple_likeIT_EESt21is_move_constructibleIS6_ESt18is_move_assignableIS6_EEE5valueEvE4typeERS6_SG_
FN:182,_ZSt4swapIP15QTypedArrayDataItEENSt9enable_ifIXsrSt6__and_IJSt6__not_ISt15__is_tuple_likeIT_EESt21is_move_constructibleIS7_ESt18is_move_assignableIS7_EEE5valueEvE4typeERS7_SH_
FNDA:10,_ZSt4swapIP15QTypedArrayDataItEENSt9enable_ifIXsrSt6__and_IJSt6__not_ISt15__is_tuple_likeIT_EESt21is_move_constructibleIS7_ESt18is_move_assignableIS7_EEE5valueEvE4typeERS7_SH_
DA:99,21
DA:100,21
DA:99,0
DA:100,0
DA:99,0
DA:100,0
DA:99,30
DA:100,30
DA:99,8
DA:100,8
DA:182,7
DA:193,7
DA:194,7
DA:195,7
DA:196,7
DA:182,0
DA:193,0
DA:194,0
DA:195,0
DA:196,0
DA:182,10
DA:193,10
DA:194,10
DA:195,10
DA:196,10
end_of_record
SF:/usr/include/x86_64-linux-gnu/qt5/QtCore/qdebug.h
FN:125,_ZN6QDebug10maybeSpaceEv
FNDA:0,_ZN6QDebug10maybeSpaceEv
FN:153,_ZN6QDebuglsEPKc
FNDA:0,_ZN6QDebuglsEPKc
FN:155,_ZN6QDebuglsERK7QString
FNDA:0,_ZN6QDebuglsERK7QString
DA:125,0
DA:153,0
DA:155,0
end_of_record
SF:/home/user/Desktop/pobedi-me-ako-znas/application/mojbroj.cpp
FN:11,_ZN7MojbrojC2EP7QWidget
FNDA:0,_ZN7MojbrojC2EP7QWidget
FN:70,_ZN7MojbrojC2EP7QWidgetP10QTcpSocket7QStringS4_bii
FNDA:2,_ZN7MojbrojC2EP7QWidgetP10QTcpSocket7QStringS4_bii
FN:152,_ZN7Mojbroj8initGameEv
FNDA:2,_ZN7Mojbroj8initGameEv
FN:186,_ZN7Mojbroj10deinitGameEv
FNDA:2,_ZN7Mojbroj10deinitGameEv
FN:203,_ZN7MojbrojD2Ev
FNDA:2,_ZN7MojbrojD2Ev
FN:203,_ZN7MojbrojD0Ev
FNDA:2,_ZN7MojbrojD0Ev
FN:209,_ZN7Mojbroj16buttonPressedNumEv
FNDA:4,_ZN7Mojbroj16buttonPressedNumEv
FN:237,_ZN7Mojbroj15buttonPressedOpEv
FNDA:0,_ZN7Mojbroj15buttonPressedOpEv
FN:248,_ZN7Mojbroj19buttonPressedSubmitEv
FNDA:4,_ZN7Mojbroj19buttonPressedSubmitEv
FN:296,_ZN7Mojbroj22buttonPressedNextRoundEv
FNDA:4,_ZN7Mojbroj22buttonPressedNextRoundEv
FN:335,_ZN7Mojbroj21buttonPressedNextGameEv
FNDA:2,_ZN7Mojbroj21buttonPressedNextGameEv
FN:341,_ZN7Mojbroj3delEv
FNDA:0,_ZN7Mojbroj3delEv
FN:358,_ZN7Mojbroj10setNumbersEv
FNDA:7,_ZN7Mojbroj10setNumbersEv
FN:376,_ZN7Mojbroj15setButtonStatusEb
FNDA:8,_ZN7Mojbroj15setButtonStatusEb
FN:394,_ZN7Mojbroj16getPlayer1PointsEv
FNDA:4,_ZN7Mojbroj16getPlayer1PointsEv
FN:399,_ZN7Mojbroj16getPlayer2PointsEv
FNDA:4,_ZN7Mojbroj16getPlayer2PointsEv
FN:404,_ZN7Mojbroj10on_timesUpEv
FNDA:0,_ZN7Mojbroj10on_timesUpEv
FN:409,_ZN7Mojbroj10on_gameEndEv
FNDA:0,_ZN7Mojbroj10on_gameEndEv
FN:414,_ZN7Mojbroj10updateTimeEv
FNDA:10,_ZN7Mojbroj10updateTimeEv
FN:435,_ZN7Mojbroj11onReadyReadEv
FNDA:16,_ZN7Mojbroj11onReadyReadEv
FN:451,_ZN7Mojbroj20processServerMessageE7QString
FNDA:19,_ZN7Mojbroj20processServerMessageE7QString
FN:514,_ZN7Mojbroj11sendMessageEP10QTcpSocket7QString
FNDA:16,_ZN7Mojbroj11sendMessageEP10QTcpSocket7QString
DA:11,0
DA:13,0
DA:15,0
DA:16,0
DA:17,0
DA:18,0
DA:19,0
DA:22,0
DA:23,0
DA:25,0
DA:26,0
DA:27,0
DA:29,0
DA:30,0
DA:32,0
DA:33,0
DA:34,0
DA:35,0
DA:37,0
DA:38,0
DA:39,0
DA:40,0
DA:41,0
DA:42,0
DA:44,0
DA:45,0
DA:47,0
DA:49,0
DA:50,0
DA:51,0
DA:52,0
DA:53,0
DA:54,0
DA:56,0
DA:57,0
DA:58,0
DA:59,0
DA:60,0
DA:61,0
DA:63,0
DA:65,0
DA:67,0
DA:68,0
DA:70,2
DA:71,2
DA:72,2
DA:74,2
DA:75,2
DA:76,2
DA:77,2
DA:78,2
DA:79,2
DA:81,2
DA:82,2
DA:83,2
DA:85,2
DA:86,2
DA:88,4
DA:89,2
DA:90,4
DA:91,2
DA:92,2
DA:94,2
DA:95,2
DA:97,2
DA:98,2
DA:99,2
DA:101,2
DA:102,2
DA:103,2
DA:104,2
DA:106,2
DA:107,2
DA:108,2
DA:109,2
DA:111,2
DA:112,2
DA:113,2
DA:114,2
DA:115,2
DA:116,2
DA:118,2
DA:119,2
DA:121,2
DA:123,2
DA:124,2
DA:125,2
DA:126,2
DA:127,2
DA:128,2
DA:130,2
DA:131,2
DA:132,2
DA:133,2
DA:134,2
DA:135,2
DA:137,2
DA:139,2
DA:140,2
DA:142,2
DA:144,1
DA:147,2
DA:149,2
DA:150,2
DA:152,2
DA:154,2
DA:156,1
DA:157,1
DA:161,1
DA:162,1
DA:164,2
DA:166,2
DA:167,2
DA:168,2
DA:169,2
DA:171,2
DA:172,2
DA:174,2
DA:176,1
DA:180,1
DA:183,2
DA:184,2
DA:186,2
DA:188,2
DA:190,0
DA:193,2
DA:194,2
DA:195,2
DA:196,2
DA:197,2
DA:198,2
DA:200,2
DA:203,2
DA:207,2
DA:203,2
DA:205,2
DA:206,2
DA:207,2
DA:209,4
DA:212,4
DA:213,4
DA:215,0
DA:218,0
DA:220,0
DA:222,0
DA:226,4
DA:227,8
DA:229,4
DA:231,8
DA:232,4
DA:234,4
DA:237,0
DA:239,0
DA:240,0
DA:242,0
DA:244,0
DA:245,0
DA:246,0
DA:248,4
DA:250,4
DA:252,4
DA:253,4
DA:255,4
DA:256,4
DA:258,8
DA:260,8
DA:261,4
DA:263,0
DA:265,4
DA:267,4
DA:268,0
DA:270,4
DA:272,4
DA:274,4
DA:276,8
DA:277,4
DA:279,2
DA:281,2
DA:283,1
DA:287,1
DA:292,2
DA:294,4
DA:296,4
DA:299,4
DA:300,4
DA:302,2
DA:304,1
DA:307,2
DA:308,2
DA:309,2
DA:310,2
DA:312,2
DA:314,1
DA:315,0
DA:317,1
DA:319,1
DA:323,1
DA:326,2
DA:327,2
DA:328,2
DA:329,2
DA:330,2
DA:332,2
DA:335,2
DA:337,2
DA:338,2
DA:339,2
DA:341,0
DA:343,0
DA:345,0
DA:347,0
DA:348,0
DA:350,0
DA:351,0
DA:353,0
DA:356,0
DA:358,7
DA:360,7
DA:362,7
DA:363,7
DA:364,7
DA:365,7
DA:366,7
DA:367,7
DA:369,7
DA:371,7
DA:372,7
DA:373,7
DA:374,7
DA:376,8
DA:378,8
DA:379,8
DA:380,8
DA:381,8
DA:382,8
DA:383,8
DA:384,8
DA:385,8
DA:386,8
DA:387,8
DA:388,8
DA:389,8
DA:390,8
DA:391,8
DA:392,8
DA:394,4
DA:396,4
DA:399,4
DA:401,4
DA:404,0
DA:406,0
DA:407,0
DA:409,0
DA:411,0
DA:412,0
DA:414,10
DA:416,10
DA:418,10
DA:421,10
DA:424,0
DA:426,0
DA:430,0
DA:433,10
DA:435,16
DA:437,32
DA:438,32
DA:440,32
DA:442,46
DA:444,30
DA:446,19
DA:449,16
DA:451,19
DA:454,19
DA:457,14
DA:459,14
DA:460,7
DA:462,7
DA:464,14
DA:465,49
DA:467,42
DA:469,7
DA:471,7
DA:473,12
DA:475,2
DA:477,10
DA:479,8
DA:481,4
DA:482,8
DA:483,4
DA:485,4
DA:486,4
DA:487,0
DA:489,4
DA:490,4
DA:492,6
DA:494,8
DA:495,4
DA:497,4
DA:498,4
DA:500,4
DA:501,4
DA:503,2
DA:505,2
DA:506,2
DA:510,0
DA:512,19
DA:514,16
DA:516,16
DA:517,16
DA:518,16
end_of_record
SF:/usr/include/c++/9/new
FN:173,_ZnwmPv
FNDA:0,_ZnwmPv
DA:173,0
DA:174,0
end_of_record
SF:/home/user/Desktop/pobedi-me-ako-znas/build/application/application_autogen/include/ui_mojbroj.h
FN:93,_ZN10Ui_Mojbroj7setupUiEP7QWidget
FNDA:2,_ZN10Ui_Mojbroj7setupUiEP7QWidget
FN:507,_ZN10Ui_Mojbroj13retranslateUiEP7QWidget
FNDA:2,_ZN10Ui_Mojbroj13retranslateUiEP7QWidget
DA:93,2
DA:95,2
DA:96,2
DA:97,2
DA:98,2
DA:99,2
DA:100,2
DA:101,2
DA:102,2
DA:103,2
DA:104,2
DA:105,2
DA:106,2
DA:107,2
DA:108,2
DA:110,2
DA:112,2
DA:113,2
DA:114,2
DA:115,2
DA:116,4
DA:117,2
DA:118,2
DA:119,2
DA:120,2
DA:121,2
DA:122,2
DA:123,2
DA:124,2
DA:125,2
DA:126,2
DA:127,2
DA:128,2
DA:130,2
DA:132,2
DA:134,2
DA:137,2
DA:139,2
DA:141,2
DA:143,2
DA:144,2
DA:145,2
DA:147,2
DA:149,2
DA:150,2
DA:151,2
DA:152,2
DA:153,2
DA:155,2
DA:157,2
DA:158,2
DA:159,2
DA:160,2
DA:161,2
DA:163,2
DA:165,2
DA:166,2
DA:167,2
DA:168,2
DA:169,2
DA:171,2
DA:173,2
DA:174,2
DA:175,2
DA:176,2
DA:177,2
DA:179,2
DA:181,2
DA:183,2
DA:185,2
DA:186,2
DA:187,2
DA:188,2
DA:189,2
DA:191,2
DA:193,2
DA:195,2
DA:197,2
DA:198,2
DA:199,2
DA:200,2
DA:201,2
DA:203,2
DA:205,2
DA:207,2
DA:210,2
DA:212,2
DA:213,2
DA:214,2
DA:216,2
DA:218,2
DA:219,2
DA:220,2
DA:222,2
DA:224,2
DA:226,2
DA:229,2
DA:231,2
DA:232,2
DA:233,2
DA:235,2
DA:237,2
DA:238,2
DA:239,2
DA:241,2
DA:243,2
DA:245,2
DA:248,2
DA:250,2
DA:252,2
DA:254,2
DA:255,2
DA:256,2
DA:258,2
DA:260,2
DA:261,2
DA:262,2
DA:263,2
DA:264,2
DA:266,2
DA:268,2
DA:269,2
DA:270,2
DA:271,2
DA:272,2
DA:274,2
DA:276,2
DA:277,2
DA:278,2
DA:279,2
DA:280,2
DA:282,2
DA:284,2
DA:285,2
DA:286,2
DA:287,2
DA:288,2
DA:290,2
DA:292,2
DA:293,2
DA:294,2
DA:295,2
DA:296,2
DA:298,2
DA:300,2
DA:301,2
DA:302,2
DA:303,2
DA:304,2
DA:306,2
DA:308,2
DA:310,2
DA:313,2
DA:315,2
DA:316,2
DA:317,2
DA:318,2
DA:319,2
DA:321,2
DA:323,2
DA:324,2
DA:325,2
DA:326,2
DA:327,2
DA:328,2
DA:330,2
DA:332,2
DA:333,2
DA:334,2
DA:335,2
DA:336,2
DA:337,2
DA:339,2
DA:341,2
DA:342,2
DA:343,2
DA:344,2
DA:345,2
DA:347,2
DA:349,2
DA:351,2
DA:354,2
DA:356,2
DA:357,2
DA:358,2
DA:360,2
DA:362,2
DA:363,2
DA:364,2
DA:365,2
DA:366,2
DA:368,2
DA:370,2
DA:372,2
DA:375,2
DA:378,2
DA:380,2
DA:381,2
DA:382,2
DA:384,2
DA:386,2
DA:387,2
DA:388,2
DA:389,2
DA:390,2
DA:391,2
DA:393,2
DA:395,2
DA:396,2
DA:397,2
DA:398,2
DA:399,2
DA:400,2
DA:402,2
DA:404,2
DA:406,2
DA:409,2
DA:411,2
DA:413,2
DA:415,2
DA:416,2
DA:417,2
DA:418,2
DA:419,2
DA:420,2
DA:421,2
DA:422,2
DA:423,2
DA:424,2
DA:425,2
DA:426,4
DA:427,2
DA:428,2
DA:429,2
DA:430,2
DA:432,2
DA:433,2
DA:435,2
DA:437,2
DA:438,2
DA:440,2
DA:442,2
DA:443,2
DA:444,2
DA:445,4
DA:446,4
DA:447,2
DA:448,2
DA:449,4
DA:450,2
DA:451,2
DA:452,2
DA:453,4
DA:454,2
DA:456,2
DA:458,2
DA:459,2
DA:460,2
DA:462,2
DA:464,2
DA:465,2
DA:466,2
DA:468,2
DA:470,2
DA:471,4
DA:472,2
DA:473,2
DA:474,2
DA:475,2
DA:476,2
DA:477,2
DA:478,2
DA:479,2
DA:480,2
DA:481,2
DA:482,2
DA:483,2
DA:484,2
DA:485,2
DA:486,2
DA:487,2
DA:488,2
DA:489,2
DA:491,2
DA:492,2
DA:494,2
DA:496,2
DA:497,2
DA:499,2
DA:502,2
DA:504,2
DA:505,2
DA:507,2
DA:509,2
DA:510,2
DA:511,2
DA:512,2
DA:513,2
DA:514,2
DA:515,2
DA:516,2
DA:517,2
DA:518,2
DA:519,2
DA:520,2
DA:521,2
DA:522,2
DA:523,2
DA:524,2
DA:525,2
DA:526,2
DA:527,2
DA:528,2
DA:529,2
DA:530,2
DA:531,2
DA:532,2
end_of_record
SF:/usr/include/x86_64-linux-gnu/qt5/QtCore/qalgorithms.h
FN:747,_Z22qCountTrailingZeroBitsj
FNDA:0,_Z22qCountTrailingZeroBitsj
DA:556,0
DA:747,0
DA:750,0
end_of_record
SF:/usr/include/x86_64-linux-gnu/qt5/QtCore/qpair.h
end_of_record
SF:/usr/include/x86_64-linux-gnu/qt5/QtWidgets/qwidget.h
FN:766,_ZNK7QWidget9isEnabledEv
FNDA:0,_ZNK7QWidget9isEnabledEv
FN:787,_ZN7QWidget14setMinimumSizeERK5QSize
FNDA:0,_ZN7QWidget14setMinimumSizeERK5QSize
FN:790,_ZN7QWidget14setMaximumSizeERK5QSize
FNDA:0,_ZN7QWidget14setMaximumSizeERK5QSize
FN:838,_ZN7QWidget6resizeEii
FNDA:0,_ZN7QWidget6resizeEii
FN:850,_ZNK7QWidget4sizeEv
FNDA:0,_ZNK7QWidget4sizeEv
FN:865,_ZNK7QWidget13testAttributeEN2Qt15WidgetAttributeE
FNDA:0,_ZNK7QWidget13testAttributeEN2Qt15WidgetAttributeE
DA:766,0
DA:767,0
DA:787,0
DA:788,0
DA:790,0
DA:791,0
DA:838,0
DA:839,0
DA:850,0
DA:851,0
DA:865,0
DA:867,0
DA:868,0
DA:869,0
end_of_record
SF:/usr/include/c++/9/atomic
FN:759,_ZNSt6atomicIiEC2Ei
FNDA:0,_ZNSt6atomicIiEC2Ei
DA:759,0
end_of_record
TN:
SF:/usr/include/x86_64-linux-gnu/qt5/QtCore/qatomic_cxx11.h
FN:225,_ZN10QAtomicOpsIiE4loadIiEET_RKSt6atomicIS2_E
FNDA:0,_ZN10QAtomicOpsIiE4loadIiEET_RKSt6atomicIS2_E
FN:263,_ZN10QAtomicOpsIiE3refIiEEbRSt6atomicIT_E
FNDA:0,_ZN10QAtomicOpsIiE3refIiEEbRSt6atomicIT_E
FN:269,_ZN10QAtomicOpsIiE5derefIiEEbRSt6atomicIT_E
FNDA:0,_ZN10QAtomicOpsIiE5derefIiEEbRSt6atomicIT_E
DA:225,0
DA:227,0
DA:263,0
DA:265,0
DA:269,0
DA:271,0
end_of_record
SF:/usr/include/x86_64-linux-gnu/qt5/QtGui/qpalette.h
FN:200,_ZN8QPalette8setBrushENS_9ColorRoleERK6QBrush
FNDA:0,_ZN8QPalette8setBrushENS_9ColorRoleERK6QBrush
DA:200,0
DA:201,0
end_of_record
SF:/usr/include/x86_64-linux-gnu/qt5/QtGui/qpixmap.h
FN:77,_ZN7QPixmapaSEOS_
FNDA:0,_ZN7QPixmapaSEOS_
DA:77,0
DA:78,0
end_of_record
SF:/usr/include/x86_64-linux-gnu/qt5/QtCore/qglobal.h
FN:911,_Z5qSwapIP15QPlatformPixmapEvRT_S3_
FNDA:0,_Z5qSwapIP15QPlatformPixmapEvRT_S3_
FN:911,_Z5qSwapIP15QTypedArrayDataItEEvRT_S4_
FNDA:0,_Z5qSwapIP15QTypedArrayDataItEEvRT_S4_
DA:911,0
DA:915,0
DA:916,0
DA:911,0
DA:915,0
DA:916,0
end_of_record
SF:/usr/include/c++/9/iostream
end_of_record
SF:/usr/include/x86_64-linux-gnu/qt5/QtWidgets/qlayoutitem.h
FN:89,_ZN11QLayoutItemC2E6QFlagsIN2Qt13AlignmentFlagEE
FNDA:0,_ZN11QLayoutItemC2E6QFlagsIN2Qt13AlignmentFlagEE
FN:95,_ZN11QSpacerItemC2EiiN11QSizePolicy6PolicyES1_
FNDA:0,_ZN11QSpacerItemC2EiiN11QSizePolicy6PolicyES1_
DA:89,0
DA:90,0
DA:95,0
DA:98,0
end_of_record
SF:/usr/include/x86_64-linux-gnu/qt5/QtCore/qstring.h
FN:235,_ZN7QStringaSEOS_
FNDA:0,_ZN7QStringaSEOS_
FN:239,_ZNK7QString4sizeEv
FNDA:0,_ZNK7QString4sizeEv
FN:549,_ZNKR7QString6toUtf8Ev
FNDA:0,_ZNKR7QString6toUtf8Ev
FN:570,_ZN7QString8fromUtf8EPKci
FNDA:0,_ZN7QString8fromUtf8EPKci
FN:580,_ZN7QString8fromUtf8ERK10QByteArray
FNDA:0,_ZN7QString8fromUtf8ERK10QByteArray
FN:699,_ZN7QStringC2EPKc
FNDA:0,_ZN7QStringC2EPKc
FN:705,_ZN7QStringaSEPKc
FNDA:0,_ZN7QStringaSEPKc
FN:933,_ZNK7QString6lengthEv
FNDA:0,_ZNK7QString6lengthEv
FN:941,_ZNK7QString7isEmptyEv
FNDA:0,_ZNK7QString7isEmptyEv
FN:949,_ZNK7QString9constDataEv
FNDA:0,_ZNK7QString9constDataEv
FN:957,_ZN7QStringC2ERKS_
FNDA:0,_ZN7QStringC2ERKS_
FN:1134,_ZN7QStringC2Ev
FNDA:0,_ZN7QStringC2Ev
FN:1135,_ZN7QStringD2Ev
FNDA:0,_ZN7QStringD2Ev
FN:1237,_ZNK7QStringeqEPKc
FNDA:0,_ZNK7QStringeqEPKc
DA:235,0
DA:236,0
DA:239,0
DA:549,0
DA:550,0
DA:570,0
DA:572,0
DA:580,0
DA:581,0
DA:699,0
DA:700,0
DA:701,0
DA:705,0
DA:706,0
DA:933,0
DA:934,0
DA:941,0
DA:942,0
DA:949,0
DA:950,0
DA:957,0
DA:958,0
DA:1134,0
DA:1135,0
DA:1237,0
DA:1238,0
end_of_record
SF:/usr/include/x86_64-linux-gnu/qt5/QtCore/qbytearray.h
FN:76,_Z8qstrnlenPKcj
FNDA:0,_Z8qstrnlenPKcj
FN:476,_ZN10QByteArrayD2Ev
FNDA:0,_ZN10QByteArrayD2Ev
FN:477,_ZNK10QByteArray4sizeEv
FNDA:0,_ZNK10QByteArray4sizeEv
FN:497,_ZNK10QByteArray4dataEv
FNDA:0,_ZNK10QByteArray4dataEv
FN:499,_ZNK10QByteArray9constDataEv
FNDA:0,_ZNK10QByteArray9constDataEv
DA:76,0
DA:78,0
DA:79,0
DA:80,0
DA:81,0
DA:83,0
DA:476,0
DA:477,0
DA:478,0
DA:497,0
DA:498,0
DA:499,0
DA:500,0
end_of_record
SF:/usr/include/x86_64-linux-gnu/qt5/QtCore/qrect.h
FN:60,_ZN5QRectC2Ev
FNDA:0,_ZN5QRectC2Ev
FN:184,_ZN5QRectC2Eiiii
FNDA:0,_ZN5QRectC2Eiiii
FN:265,_ZNK5QRect5widthEv
FNDA:0,_ZNK5QRect5widthEv
FN:268,_ZNK5QRect6heightEv
FNDA:0,_ZNK5QRect6heightEv
FN:271,_ZNK5QRect4sizeEv
FNDA:0,_ZNK5QRect4sizeEv
DA:60,0
DA:184,0
DA:185,0
DA:265,0
DA:266,0
DA:268,0
DA:269,0
DA:271,0
DA:272,0
end_of_record
SF:/usr/include/x86_64-linux-gnu/qt5/QtCore/qstringlist.h
FN:69,_ZN19QListSpecialMethodsI7QStringED2Ev
FNDA:0,_ZN19QListSpecialMethodsI7QStringED2Ev
DA:69,0
end_of_record
SF:/usr/include/x86_64-linux-gnu/qt5/QtCore/qarraydata.h
FN:57,_ZN10QArrayData4dataEv
FNDA:0,_ZN10QArrayData4dataEv
FN:123,_ZN10QArrayData10sharedNullEv
FNDA:0,_ZN10QArrayData10sharedNullEv
FN:208,_ZN15QTypedArrayDataItE4dataEv
FNDA:0,_ZN15QTypedArrayDataItE4dataEv
FN:208,_ZN15QTypedArrayDataIcE4dataEv
FNDA:0,_ZN15QTypedArrayDataIcE4dataEv
FN:236,_ZN15QTypedArrayDataItE10deallocateEP10QArrayData
FNDA:0,_ZN15QTypedArrayDataItE10deallocateEP10QArrayData
FN:236,_ZN15QTypedArrayDataIcE10deallocateEP10QArrayData
FNDA:0,_ZN15QTypedArrayDataIcE10deallocateEP10QArrayData
FN:257,_ZN15QTypedArrayDataItE10sharedNullEv
FNDA:0,_ZN15QTypedArrayDataItE10sharedNullEv
DA:57,0
DA:61,0
DA:123,0
DA:208,0
DA:208,0
DA:236,0
DA:239,0
DA:240,0
DA:236,0
DA:239,0
DA:240,0
DA:257,0
DA:260,0
end_of_record
SF:/usr/include/x86_64-linux-gnu/qt5/QtCore/qchar.h
FN:86,_ZN5QCharC2Ei
FNDA:0,_ZN5QCharC2Ei
DA:86,0
end_of_record
SF:/home/user/Desktop/pobedi-me-ako-znas/build/application/application_autogen/include/ui_pocetniekran.h
FN:42,_ZN15Ui_PocetniEkran7setupUiEP11QMainWindow
FNDA:4,_ZN15Ui_PocetniEkran7setupUiEP11QMainWindow
FN:112,_ZN15Ui_PocetniEkran13retranslateUiEP11QMainWindow
FNDA:4,_ZN15Ui_PocetniEkran13retranslateUiEP11QMainWindow
DA:42,4
DA:44,4
DA:45,2
DA:46,4
DA:47,4
DA:48,4
DA:49,4
DA:50,4
DA:51,4
DA:52,4
DA:53,4
DA:54,4
DA:55,4
DA:57,4
DA:59,4
DA:60,4
DA:61,4
DA:63,4
DA:66,4
DA:68,4
DA:70,4
DA:72,4
DA:73,4
DA:74,4
DA:75,4
DA:76,4
DA:77,4
DA:78,4
DA:80,4
DA:82,4
DA:83,4
DA:84,4
DA:85,4
DA:86,4
DA:88,4
DA:90,4
DA:92,4
DA:95,4
DA:97,4
DA:99,4
DA:101,4
DA:102,4
DA:103,4
DA:104,4
DA:105,4
DA:107,4
DA:109,4
DA:110,4
DA:112,4
DA:114,4
DA:115,4
DA:116,4
DA:117,4
DA:118,4
end_of_record
SF:/usr/include/x86_64-linux-gnu/qt5/QtCore/qdebug.h
FN:125,_ZN6QDebug10maybeSpaceEv
FNDA:0,_ZN6QDebug10maybeSpaceEv
FN:145,_ZN6QDebuglsEi
FNDA:0,_ZN6QDebuglsEi
FN:153,_ZN6QDebuglsEPKc
FNDA:0,_ZN6QDebuglsEPKc
FN:155,_ZN6QDebuglsERK7QString
FNDA:0,_ZN6QDebuglsERK7QString
FN:165,_ZN6QDebuglsEPFR11QTextStreamS1_E
FNDA:0,_ZN6QDebuglsEPFR11QTextStreamS1_E
DA:125,0
DA:145,0
DA:153,0
DA:155,0
DA:165,0
DA:166,0
DA:167,0
end_of_record
SF:/usr/include/x86_64-linux-gnu/qt5/QtCore/qiodevice.h
FN:136,_ZN9QIODevice5writeERK10QByteArray
FNDA:0,_ZN9QIODevice5writeERK10QByteArray
DA:136,0
DA:137,0
end_of_record
SF:/home/user/Desktop/pobedi-me-ako-znas/application/pocetniekran.h
end_of_record
SF:/usr/include/x86_64-linux-gnu/qt5/QtCore/qsize.h
FN:119,_ZN5QSizeC2Eii
FNDA:0,_ZN5QSizeC2Eii
FN:130,_ZNK5QSize5widthEv
FNDA:0,_ZNK5QSize5widthEv
FN:133,_ZNK5QSize6heightEv
FNDA:0,_ZNK5QSize6heightEv
DA:119,0
DA:130,0
DA:131,0
DA:133,0
DA:134,0
end_of_record
SF:/usr/include/c++/9/bits/move.h
FN:99,_ZSt4moveIRP15QPlatformPixmapEONSt16remove_referenceIT_E4typeEOS4_
FNDA:0,_ZSt4moveIRP15QPlatformPixmapEONSt16remove_referenceIT_E4typeEOS4_
FN:99,_ZSt4moveIRP15QTypedArrayDataItEEONSt16remove_referenceIT_E4typeEOS5_
FNDA:0,_ZSt4moveIRP15QTypedArrayDataItEEONSt16remove_referenceIT_E4typeEOS5_
FN:182,_ZSt4swapIP15QPlatformPixmapENSt9enable_ifIXsrSt6__and_IJSt6__not_ISt15__is_tuple_likeIT_EESt21is_move_constructibleIS6_ESt18is_move_assignableIS6_EEE5valueEvE4typeERS6_SG_
FNDA:0,_ZSt4swapIP15QPlatformPixmapENSt9enable_ifIXsrSt6__and_IJSt6__not_ISt15__is_tuple_likeIT_EESt21is_move_constructibleIS6_ESt18is_move_assignableIS6_EEE5valueEvE4typeERS6_SG_
FN:182,_ZSt4swapIP15QTypedArrayDataItEENSt9enable_ifIXsrSt6__and_IJSt6__not_ISt15__is_tuple_likeIT_EESt21is_move_constructibleIS7_ESt18is_move_assignableIS7_EEE5valueEvE4typeERS7_SH_
FNDA:0,_ZSt4swapIP15QTypedArrayDataItEENSt9enable_ifIXsrSt6__and_IJSt6__not_ISt15__is_tuple_likeIT_EESt21is_move_constructibleIS7_ESt18is_move_assignableIS7_EEE5valueEvE4typeERS7_SH_
DA:99,0
DA:100,0
DA:99,0
DA:100,0
DA:182,0
DA:193,0
DA:194,0
DA:195,0
DA:196,0
DA:182,0
DA:193,0
DA:194,0
DA:195,0
DA:196,0
end_of_record
SF:/usr/include/c++/9/atomic
FN:759,_ZNSt6atomicIiEC2Ei
FNDA:0,_ZNSt6atomicIiEC2Ei
DA:759,0
end_of_record
SF:/usr/include/x86_64-linux-gnu/qt5/QtWidgets/qwidget.h
FN:787,_ZN7QWidget14setMinimumSizeERK5QSize
FNDA:0,_ZN7QWidget14setMinimumSizeERK5QSize
FN:790,_ZN7QWidget14setMaximumSizeERK5QSize
FNDA:0,_ZN7QWidget14setMaximumSizeERK5QSize
FN:838,_ZN7QWidget6resizeEii
FNDA:0,_ZN7QWidget6resizeEii
FN:850,_ZNK7QWidget4sizeEv
FNDA:0,_ZNK7QWidget4sizeEv
DA:787,0
DA:788,0
DA:790,0
DA:791,0
DA:838,0
DA:839,0
DA:850,0
DA:851,0
end_of_record
SF:/usr/include/x86_64-linux-gnu/qt5/QtCore/qalgorithms.h
FN:747,_Z22qCountTrailingZeroBitsj
FNDA:0,_Z22qCountTrailingZeroBitsj
DA:556,0
DA:747,0
DA:750,0
end_of_record
SF:/usr/include/c++/9/new
FN:173,_ZnwmPv
FNDA:0,_ZnwmPv
DA:173,0
DA:174,0
end_of_record
SF:/usr/include/x86_64-linux-gnu/qt5/QtCore/qatomic.h
FN:60,_ZN14QAtomicIntegerIiEC2Ei
FNDA:0,_ZN14QAtomicIntegerIiEC2Ei
FN:162,_ZN10QAtomicIntC2Ei
FNDA:0,_ZN10QAtomicIntC2Ei
DA:60,0
DA:162,0
end_of_record
SF:/usr/include/x86_64-linux-gnu/qt5/QtCore/qflags.h
FN:120,_ZN6QFlagsIN9QIODevice12OpenModeFlagEEC2ES1_
FNDA:0,_ZN6QFlagsIN9QIODevice12OpenModeFlagEEC2ES1_
FN:120,_ZN6QFlagsIN2Qt19ImageConversionFlagEEC2ES1_
FNDA:0,_ZN6QFlagsIN2Qt19ImageConversionFlagEEC2ES1_
FN:121,_ZN6QFlagsIN2Qt13AlignmentFlagEEC2EMNS2_7PrivateEi
FNDA:0,_ZN6QFlagsIN2Qt13AlignmentFlagEEC2EMNS2_7PrivateEi
FN:121,_ZN6QFlagsIN2Qt10WindowTypeEEC2EMNS2_7PrivateEi
FNDA:0,_ZN6QFlagsIN2Qt10WindowTypeEEC2EMNS2_7PrivateEi
DA:120,0
DA:120,0
DA:121,0
DA:121,0
end_of_record
SF:/usr/include/x86_64-linux-gnu/qt5/QtCore/qlist.h
FN:100,_ZN9QListData7disposeEv
FNDA:0,_ZN9QListData7disposeEv
FN:116,_ZNK9QListData5beginEv
FNDA:0,_ZNK9QListData5beginEv
FN:117,_ZNK9QListData3endEv
FNDA:0,_ZNK9QListData3endEv
FN:142,_ZN5QListI7QStringE4Node1tEv
FNDA:0,_ZN5QListI7QStringE4Node1tEv
FN:172,_ZN5QListI7QStringE6detachEv
FNDA:0,_ZN5QListI7QStringE6detachEv
FN:235,_ZN5QListI7QStringE8iteratorC2EPNS1_4NodeE
FNDA:0,_ZN5QListI7QStringE8iteratorC2EPNS1_4NodeE
FN:241,_ZNK5QListI7QStringE8iteratordeEv
FNDA:0,_ZNK5QListI7QStringE8iteratordeEv
FN:245,_ZNK5QListI7QStringE8iteratorneERKS2_
FNDA:0,_ZNK5QListI7QStringE8iteratorneERKS2_
FN:264,_ZN5QListI7QStringE8iteratorppEv
FNDA:0,_ZN5QListI7QStringE8iteratorppEv
FN:324,_ZN5QListI7QStringE5beginEv
FNDA:0,_ZN5QListI7QStringE5beginEv
FN:328,_ZN5QListI7QStringE3endEv
FNDA:0,_ZN5QListI7QStringE3endEv
FN:459,_ZN5QListI7QStringE9node_copyEPNS1_4NodeES3_S3_
FNDA:0,_ZN5QListI7QStringE9node_copyEPNS1_4NodeES3_S3_
FN:494,_ZN5QListI7QStringE13node_destructEPNS1_4NodeES3_
FNDA:0,_ZN5QListI7QStringE13node_destructEPNS1_4NodeES3_
FN:786,_ZN5QListI7QStringE13detach_helperEi
FNDA:0,_ZN5QListI7QStringE13detach_helperEi
FN:803,_ZN5QListI7QStringE13detach_helperEv
FNDA:0,_ZN5QListI7QStringE13detach_helperEv
FN:827,_ZN5QListI7QStringED2Ev
FNDA:0,_ZN5QListI7QStringED2Ev
FN:866,_ZN5QListI7QStringE7deallocEPN9QListData4DataE
FNDA:0,_ZN5QListI7QStringE7deallocEPN9QListData4DataE
DA:100,0
DA:116,0
DA:117,0
DA:142,0
DA:144,0
DA:172,0
DA:235,0
DA:241,0
DA:245,0
DA:264,0
DA:324,0
DA:328,0
DA:459,0
DA:461,0
DA:477,0
DA:478,0
DA:479,0
DA:480,0
DA:491,0
DA:494,0
DA:499,0
DA:500,0
DA:786,0
DA:788,0
DA:789,0
DA:791,0
DA:792,0
DA:793,0
DA:794,0
DA:795,0
DA:798,0
DA:799,0
DA:800,0
DA:803,0
DA:805,0
DA:806,0
DA:827,0
DA:829,0
DA:830,0
DA:831,0
DA:866,0
DA:868,0
DA:869,0
DA:870,0
DA:871,0
end_of_record
SF:/usr/include/x86_64-linux-gnu/qt5/QtCore/qshareddata.h
FN:233,_ZN28QExplicitlySharedDataPointerI15QPlatformPixmapE4swapERS1_
FNDA:0,_ZN28QExplicitlySharedDataPointerI15QPlatformPixmapE4swapERS1_
FN:304,_Z5qSwapI15QPlatformPixmapEvR28QExplicitlySharedDataPointerIT_ES4_
FNDA:0,_Z5qSwapI15QPlatformPixmapEvR28QExplicitlySharedDataPointerIT_ES4_
DA:233,0
DA:234,0
DA:304,0
DA:305,0
end_of_record
SF:/usr/include/x86_64-linux-gnu/qt5/QtCore/qrefcount.h
FN:54,_ZN9QtPrivate8RefCount3refEv
FNDA:0,_ZN9QtPrivate8RefCount3refEv
FN:65,_ZN9QtPrivate8RefCount5derefEv
FNDA:0,_ZN9QtPrivate8RefCount5derefEv
FN:99,_ZNK9QtPrivate8RefCount8isSharedEv
FNDA:0,_ZNK9QtPrivate8RefCount8isSharedEv
DA:54,0
DA:55,0
DA:57,0
DA:58,0
DA:60,0
DA:61,0
DA:62,0
DA:65,0
DA:66,0
DA:68,0
DA:69,0
DA:71,0
DA:72,0
DA:73,0
DA:99,0
DA:101,0
DA:102,0
end_of_record
SF:/usr/include/x86_64-linux-gnu/qt5/QtCore/qobject.h
FN:228,_ZN7QObject7connectIM8MemorijaFvvEM12PocetniEkranFvvEEEN11QMetaObject10ConnectionEPKN9QtPrivate15FunctionPointerIT_E6ObjectESB_PKNSA_IT0_E6ObjectESG_N2Qt14ConnectionTypeE
FNDA:2,_ZN7QObject7connectIM8MemorijaFvvEM12PocetniEkranFvvEEEN11QMetaObject10ConnectionEPKN9QtPrivate15FunctionPointerIT_E6ObjectESB_PKNSA_IT0_E6ObjectESG_N2Qt14ConnectionTypeE
FN:228,_ZN7QObject7connectIM11PogodiStaUIFvvEM12PocetniEkranFvvEEEN11QMetaObject10ConnectionEPKN9QtPrivate15FunctionPointerIT_E6ObjectESB_PKNSA_IT0_E6ObjectESG_N2Qt14ConnectionTypeE
FNDA:2,_ZN7QObject7connectIM11PogodiStaUIFvvEM12PocetniEkranFvvEEEN11QMetaObject10ConnectionEPKN9QtPrivate15FunctionPointerIT_E6ObjectESB_PKNSA_IT0_E6ObjectESG_N2Qt14ConnectionTypeE
FN:228,_ZN7QObject7connectIM7KoZnauiFvvEM12PocetniEkranFvvEEEN11QMetaObject10ConnectionEPKN9QtPrivate15FunctionPointerIT_E6ObjectESB_PKNSA_IT0_E6ObjectESG_N2Qt14ConnectionTypeE
FNDA:2,_ZN7QObject7connectIM7KoZnauiFvvEM12PocetniEkranFvvEEEN11QMetaObject10ConnectionEPKN9QtPrivate15FunctionPointerIT_E6ObjectESB_PKNSA_IT0_E6ObjectESG_N2Qt14ConnectionTypeE
FN:228,_ZN7QObject7connectIM7MojbrojFvvEM12PocetniEkranFvvEEEN11QMetaObject10ConnectionEPKN9QtPrivate15FunctionPointerIT_E6ObjectESB_PKNSA_IT0_E6ObjectESG_N2Qt14ConnectionTypeE
FNDA:2,_ZN7QObject7connectIM7MojbrojFvvEM12PocetniEkranFvvEEEN11QMetaObject10ConnectionEPKN9QtPrivate15FunctionPointerIT_E6ObjectESB_PKNSA_IT0_E6ObjectESG_N2Qt14ConnectionTypeE
FN:228,_ZN7QObject7connectIM7ReckoUIFvvEM12PocetniEkranFvvEEEN11QMetaObject10ConnectionEPKN9QtPrivate15FunctionPointerIT_E6ObjectESB_PKNSA_IT0_E6ObjectESG_N2Qt14ConnectionTypeE
FNDA:2,_ZN7QObject7connectIM7ReckoUIFvvEM12PocetniEkranFvvEEEN11QMetaObject10ConnectionEPKN9QtPrivate15FunctionPointerIT_E6ObjectESB_PKNSA_IT0_E6ObjectESG_N2Qt14ConnectionTypeE
FN:228,_ZN7QObject7connectIM9QIODeviceFvvEM12PocetniEkranFvvEEEN11QMetaObject10ConnectionEPKN9QtPrivate15FunctionPointerIT_E6ObjectESB_PKNSA_IT0_E6ObjectESG_N2Qt14ConnectionTypeE
FNDA:6,_ZN7QObject7connectIM9QIODeviceFvvEM12PocetniEkranFvvEEEN11QMetaObject10ConnectionEPKN9QtPrivate15FunctionPointerIT_E6ObjectESB_PKNSA_IT0_E6ObjectESG_N2Qt14ConnectionTypeE
FN:228,_ZN7QObject7connectIM15QAbstractButtonFvbEM12PocetniEkranFvvEEEN11QMetaObject10ConnectionEPKN9QtPrivate15FunctionPointerIT_E6ObjectESB_PKNSA_IT0_E6ObjectESG_N2Qt14ConnectionTypeE
FNDA:8,_ZN7QObject7connectIM15QAbstractButtonFvbEM12PocetniEkranFvvEEEN11QMetaObject10ConnectionEPKN9QtPrivate15FunctionPointerIT_E6ObjectESB_PKNSA_IT0_E6ObjectESG_N2Qt14ConnectionTypeE
FN:353,_ZN7QObject10disconnectIM9QIODeviceFvvEM12PocetniEkranFvvEEEbPKN9QtPrivate15FunctionPointerIT_E6ObjectES9_PKNS8_IT0_E6ObjectESE_
FNDA:4,_ZN7QObject10disconnectIM9QIODeviceFvvEM12PocetniEkranFvvEEEbPKN9QtPrivate15FunctionPointerIT_E6ObjectES9_PKNS8_IT0_E6ObjectESE_
DA:228,2
DA:246,2
DA:247,2
DA:248,0
DA:252,2
DA:254,2
DA:228,2
DA:246,2
DA:247,2
DA:248,0
DA:252,2
DA:254,2
DA:228,2
DA:246,2
DA:247,2
DA:248,0
DA:252,2
DA:254,2
DA:228,2
DA:246,2
DA:247,2
DA:248,0
DA:252,2
DA:254,2
DA:228,2
DA:246,2
DA:247,2
DA:248,0
DA:252,2
DA:254,2
DA:228,6
DA:246,6
DA:247,6
DA:248,0
DA:252,6
DA:254,6
DA:228,8
DA:246,8
DA:247,8
DA:248,0
DA:252,8
DA:254,8
DA:353,4
DA:366,4
DA:367,4
end_of_record
SF:/usr/include/x86_64-linux-gnu/qt5/QtCore/qlogging.h
FN:68,_ZN18QMessageLogContextC2EPKciS1_S1_
FNDA:0,_ZN18QMessageLogContextC2EPKciS1_S1_
FN:91,_ZN14QMessageLoggerC2EPKciS1_
FNDA:0,_ZN14QMessageLoggerC2EPKciS1_
DA:68,0
DA:69,0
DA:91,0
DA:92,0
end_of_record
SF:/usr/include/x86_64-linux-gnu/qt5/QtCore/qtextstream.h
FN:230,_ZlsR11QTextStreamPFS0_S0_E
FNDA:0,_ZlsR11QTextStreamPFS0_S0_E
DA:230,0
DA:231,0
end_of_record
SF:/home/user/Desktop/pobedi-me-ako-znas/application/pocetniekran.cpp
FN:4,_ZN12PocetniEkranC2EP7QWidget
FNDA:2,_ZN12PocetniEkranC2EP7QWidget
FN:26,_ZN12PocetniEkranD2Ev
FNDA:2,_ZN12PocetniEkranD2Ev
FN:26,_ZN12PocetniEkranD0Ev
FNDA:0,_ZN12PocetniEkranD0Ev
FN:32,_ZN12PocetniEkran5getUiEv
FNDA:0,_ZN12PocetniEkran5getUiEv
FN:37,_ZN12PocetniEkran16getPlayer1PointsEv
FNDA:0,_ZN12PocetniEkran16getPlayer1PointsEv
FN:42,_ZN12PocetniEkran16getPlayer2PointsEv
FNDA:0,_ZN12PocetniEkran16getPlayer2PointsEv
FN:47,_ZN12PocetniEkran26on_startGameButton_clickedEv
FNDA:2,_ZN12PocetniEkran26on_startGameButton_clickedEv
FN:68,_ZN12PocetniEkran34on_najboljiRezultatiButton_clickedEv
FNDA:2,_ZN12PocetniEkran34on_najboljiRezultatiButton_clickedEv
FN:81,_ZN12PocetniEkran7on_infoEv
FNDA:0,_ZN12PocetniEkran7on_infoEv
FN:87,_ZN12PocetniEkran15connectToServerE7QString
FNDA:4,_ZN12PocetniEkran15connectToServerE7QString
FN:110,_ZN12PocetniEkran11onReadyReadEv
FNDA:3,_ZN12PocetniEkran11onReadyReadEv
FN:126,_ZN12PocetniEkran20processServerMessageERK7QString
FNDA:6,_ZN12PocetniEkran20processServerMessageERK7QString
FN:149,_ZN12PocetniEkran14initConntrolerEv
FNDA:2,_ZN12PocetniEkran14initConntrolerEv
FN:163,_ZN12PocetniEkran12on_reckoEndsEv
FNDA:2,_ZN12PocetniEkran12on_reckoEndsEv
FN:179,_ZN12PocetniEkran14on_mojbrojEndsEv
FNDA:2,_ZN12PocetniEkran14on_mojbrojEndsEv
FN:193,_ZN12PocetniEkran12on_koZnaEndsEv
FNDA:2,_ZN12PocetniEkran12on_koZnaEndsEv
FN:207,_ZN12PocetniEkran16on_podrundaEndedEv
FNDA:0,_ZN12PocetniEkran16on_podrundaEndedEv
FN:212,_ZN12PocetniEkran15on_memorijaEndsEv
FNDA:2,_ZN12PocetniEkran15on_memorijaEndsEv
FN:224,_ZN12PocetniEkran16on_pogodiStaEndsEv
FNDA:2,_ZN12PocetniEkran16on_pogodiStaEndsEv
FN:238,_ZN12PocetniEkran22onReadyReadBestResultsEv
FNDA:2,_ZN12PocetniEkran22onReadyReadBestResultsEv
DA:4,2
DA:6,2
DA:7,2
DA:8,2
DA:9,4
DA:10,2
DA:11,2
DA:12,2
DA:13,2
DA:15,2
DA:16,2
DA:18,2
DA:20,2
DA:21,2
DA:23,2
DA:24,2
DA:26,0
DA:30,0
DA:26,2
DA:28,2
DA:29,2
DA:30,2
DA:32,0
DA:34,0
DA:37,0
DA:39,0
DA:42,0
DA:44,0
DA:47,2
DA:49,4
DA:50,2
DA:52,2
DA:54,2
DA:56,2
DA:57,2
DA:58,2
DA:59,2
DA:63,0
DA:66,2
DA:68,2
DA:70,2
DA:72,2
DA:73,2
DA:77,0
DA:79,2
DA:81,0
DA:83,0
DA:84,0
DA:85,0
DA:87,4
DA:89,8
DA:90,4
DA:92,4
DA:93,4
DA:95,4
DA:98,4
DA:99,4
DA:101,4
DA:105,0
DA:106,0
DA:110,3
DA:112,6
DA:113,6
DA:115,6
DA:117,10
DA:119,7
DA:121,6
DA:124,3
DA:126,6
DA:128,6
DA:130,2
DA:131,2
DA:133,4
DA:135,2
DA:136,2
DA:138,2
DA:140,2
DA:141,2
DA:145,0
DA:147,6
DA:149,2
DA:152,2
DA:153,2
DA:155,2
DA:156,2
DA:157,2
DA:158,2
DA:159,2
DA:160,2
DA:161,2
DA:163,2
DA:165,2
DA:166,2
DA:167,2
DA:168,4
DA:169,2
DA:170,2
DA:171,2
DA:172,2
DA:173,2
DA:174,2
DA:176,2
DA:179,2
DA:181,2
DA:182,2
DA:183,2
DA:184,4
DA:185,2
DA:186,2
DA:187,2
DA:188,2
DA:189,2
DA:190,2
DA:191,2
DA:193,2
DA:195,2
DA:196,2
DA:197,2
DA:198,4
DA:199,2
DA:200,2
DA:201,2
DA:202,2
DA:203,2
DA:204,2
DA:205,2
DA:207,0
DA:209,0
DA:212,2
DA:214,2
DA:215,2
DA:216,2
DA:218,2
DA:219,2
DA:220,2
DA:221,2
DA:222,2
DA:224,2
DA:226,2
DA:227,2
DA:228,2
DA:229,4
DA:230,2
DA:231,2
DA:232,2
DA:233,2
DA:234,2
DA:235,2
DA:236,2
DA:238,2
DA:240,4
DA:241,4
DA:243,2
DA:244,2
DA:246,2
DA:247,2
DA:248,2
end_of_record
SF:/usr/include/x86_64-linux-gnu/qt5/QtCore/qobject_impl.h
FN:73,_ZN9QtPrivate15ConnectionTypesINS_4ListIJEEELb1EE5typesEv
FNDA:0,_ZN9QtPrivate15ConnectionTypesINS_4ListIJEEELb1EE5typesEv
FN:75,_ZN9QtPrivate15ConnectionTypesINS_4ListIJbEEELb1EE5typesEv
FNDA:0,_ZN9QtPrivate15ConnectionTypesINS_4ListIJbEEELb1EE5typesEv
DA:73,0
DA:75,0
end_of_record
SF:/usr/include/x86_64-linux-gnu/qt5/QtWidgets/qsizepolicy.h
FN:116,_ZN11QSizePolicyC2ENS_6PolicyES0_NS_11ControlTypeE
FNDA:0,_ZN11QSizePolicyC2ENS_6PolicyES0_NS_11ControlTypeE
FN:180,_ZN11QSizePolicy23toControlTypeFieldValueENS_11ControlTypeE
FNDA:0,_ZN11QSizePolicy23toControlTypeFieldValueENS_11ControlTypeE
DA:116,0
DA:117,0
DA:118,0
DA:119,0
DA:180,0
DA:196,0
end_of_record
SF:/usr/include/c++/9/bits/atomic_base.h
FN:99,_ZStanSt12memory_orderSt23__memory_order_modifier
FNDA:0,_ZStanSt12memory_orderSt23__memory_order_modifier
FN:279,_ZNSt13__atomic_baseIiEC2Ei
FNDA:0,_ZNSt13__atomic_baseIiEC2Ei
FN:318,_ZNSt13__atomic_baseIiEppEv
FNDA:0,_ZNSt13__atomic_baseIiEppEv
FN:326,_ZNSt13__atomic_baseIiEmmEv
FNDA:0,_ZNSt13__atomic_baseIiEmmEv
DA:99,0
DA:101,0
DA:279,0
DA:318,0
DA:319,0
DA:326,0
DA:327,0
DA:415,0
DA:419,0
end_of_record
SF:/usr/include/x86_64-linux-gnu/qt5/QtCore/qobjectdefs_impl.h
FN:88,_ZN9QtPrivate16ApplyReturnValueIvEC2EPv
FNDA:0,_ZN9QtPrivate16ApplyReturnValueIvEC2EPv
FN:151,_ZN9QtPrivate11FunctorCallINS_11IndexesListIJEEENS_4ListIJEEEvM12PocetniEkranFvvEE4callES7_PS5_PPv
FNDA:17,_ZN9QtPrivate11FunctorCallINS_11IndexesListIJEEENS_4ListIJEEEvM12PocetniEkranFvvEE4callES7_PS5_PPv
FN:184,_ZN9QtPrivate15FunctionPointerIM12PocetniEkranFvvEE4callINS_4ListIJEEEvEEvS3_PS1_PPv
FNDA:17,_ZN9QtPrivate15FunctionPointerIM12PocetniEkranFvvEE4callINS_4ListIJEEEvEEvS3_PS1_PPv
FN:387,_ZN9QtPrivate15QSlotObjectBaseC2EPFviPS0_P7QObjectPPvPbE
FNDA:0,_ZN9QtPrivate15QSlotObjectBaseC2EPFviPS0_P7QObjectPPvPbE
FN:396,_ZN9QtPrivate15QSlotObjectBaseD2Ev
FNDA:0,_ZN9QtPrivate15QSlotObjectBaseD2Ev
FN:407,_ZN9QtPrivate11QSlotObjectIM12PocetniEkranFvvENS_4ListIJEEEvE4implEiPNS_15QSlotObjectBaseEP7QObjectPPvPb
FNDA:45,_ZN9QtPrivate11QSlotObjectIM12PocetniEkranFvvENS_4ListIJEEEvE4implEiPNS_15QSlotObjectBaseEP7QObjectPPvPb
FN:423,_ZN9QtPrivate11QSlotObjectIM12PocetniEkranFvvENS_4ListIJEEEvEC2ES3_
FNDA:24,_ZN9QtPrivate11QSlotObjectIM12PocetniEkranFvvENS_4ListIJEEEvEC2ES3_
DA:88,0
DA:151,17
DA:152,17
DA:153,17
DA:184,17
DA:185,17
DA:186,17
DA:387,0
DA:396,0
DA:407,45
DA:409,45
DA:410,24
DA:411,24
DA:412,24
DA:413,17
DA:414,17
DA:415,17
DA:416,4
DA:417,4
DA:418,4
DA:419,45
DA:421,45
DA:423,24
end_of_record
SF:/usr/include/x86_64-linux-gnu/qt5/QtCore/qbasicatomic.h
FN:103,_ZNK19QBasicAtomicIntegerIiE4loadEv
FNDA:0,_ZNK19QBasicAtomicIntegerIiE4loadEv
FN:114,_ZN19QBasicAtomicIntegerIiE3refEv
FNDA:0,_ZN19QBasicAtomicIntegerIiE3refEv
FN:115,_ZN19QBasicAtomicIntegerIiE5derefEv
FNDA:0,_ZN19QBasicAtomicIntegerIiE5derefEv
FN:221,_ZN19QBasicAtomicIntegerIiEC2Ei
FNDA:0,_ZN19QBasicAtomicIntegerIiEC2Ei
DA:103,0
DA:114,0
DA:115,0
DA:221,0
end_of_record
TN:
SF:/usr/include/x86_64-linux-gnu/qt5/QtCore/qobject_impl.h
FN:73,_ZN9QtPrivate15ConnectionTypesINS_4ListIJEEELb1EE5typesEv
FNDA:0,_ZN9QtPrivate15ConnectionTypesINS_4ListIJEEELb1EE5typesEv
FN:75,_ZN9QtPrivate15ConnectionTypesINS_4ListIJbEEELb1EE5typesEv
FNDA:0,_ZN9QtPrivate15ConnectionTypesINS_4ListIJbEEELb1EE5typesEv
DA:73,0
DA:75,0
end_of_record
SF:/usr/include/c++/9/bits/atomic_base.h
FN:99,_ZStanSt12memory_orderSt23__memory_order_modifier
FNDA:0,_ZStanSt12memory_orderSt23__memory_order_modifier
FN:279,_ZNSt13__atomic_baseIiEC2Ei
FNDA:0,_ZNSt13__atomic_baseIiEC2Ei
FN:318,_ZNSt13__atomic_baseIiEppEv
FNDA:0,_ZNSt13__atomic_baseIiEppEv
FN:326,_ZNSt13__atomic_baseIiEmmEv
FNDA:0,_ZNSt13__atomic_baseIiEmmEv
DA:99,0
DA:101,0
DA:279,0
DA:318,0
DA:319,0
DA:326,0
DA:327,0
DA:415,0
DA:419,0
end_of_record
SF:/usr/include/x86_64-linux-gnu/qt5/QtCore/qobjectdefs_impl.h
FN:88,_ZN9QtPrivate16ApplyReturnValueIvEC2EPv
FNDA:0,_ZN9QtPrivate16ApplyReturnValueIvEC2EPv
FN:151,_ZN9QtPrivate11FunctorCallINS_11IndexesListIJEEENS_4ListIJEEEvM7KoZnauiFvvEE4callES7_PS5_PPv
FNDA:28,_ZN9QtPrivate11FunctorCallINS_11IndexesListIJEEENS_4ListIJEEEvM7KoZnauiFvvEE4callES7_PS5_PPv
FN:184,_ZN9QtPrivate15FunctionPointerIM7KoZnauiFvvEE4callINS_4ListIJEEEvEEvS3_PS1_PPv
FNDA:28,_ZN9QtPrivate15FunctionPointerIM7KoZnauiFvvEE4callINS_4ListIJEEEvEEvS3_PS1_PPv
FN:387,_ZN9QtPrivate15QSlotObjectBaseC2EPFviPS0_P7QObjectPPvPbE
FNDA:0,_ZN9QtPrivate15QSlotObjectBaseC2EPFviPS0_P7QObjectPPvPbE
FN:396,_ZN9QtPrivate15QSlotObjectBaseD2Ev
FNDA:0,_ZN9QtPrivate15QSlotObjectBaseD2Ev
FN:407,_ZN9QtPrivate11QSlotObjectIM7KoZnauiFvvENS_4ListIJEEEvE4implEiPNS_15QSlotObjectBaseEP7QObjectPPvPb
FNDA:42,_ZN9QtPrivate11QSlotObjectIM7KoZnauiFvvENS_4ListIJEEEvE4implEiPNS_15QSlotObjectBaseEP7QObjectPPvPb
FN:423,_ZN9QtPrivate11QSlotObjectIM7KoZnauiFvvENS_4ListIJEEEvEC2ES3_
FNDA:14,_ZN9QtPrivate11QSlotObjectIM7KoZnauiFvvENS_4ListIJEEEvEC2ES3_
DA:88,0
DA:151,28
DA:152,28
DA:153,28
DA:184,28
DA:185,28
DA:186,28
DA:387,0
DA:396,0
DA:407,42
DA:409,42
DA:410,14
DA:411,14
DA:412,14
DA:413,28
DA:414,28
DA:415,28
DA:416,0
DA:417,0
DA:418,0
DA:419,42
DA:421,42
DA:423,14
end_of_record
SF:/usr/include/x86_64-linux-gnu/qt5/QtCore/qbasicatomic.h
FN:103,_ZNK19QBasicAtomicIntegerIiE4loadEv
FNDA:0,_ZNK19QBasicAtomicIntegerIiE4loadEv
FN:114,_ZN19QBasicAtomicIntegerIiE3refEv
FNDA:0,_ZN19QBasicAtomicIntegerIiE3refEv
FN:115,_ZN19QBasicAtomicIntegerIiE5derefEv
FNDA:0,_ZN19QBasicAtomicIntegerIiE5derefEv
FN:221,_ZN19QBasicAtomicIntegerIiEC2Ei
FNDA:0,_ZN19QBasicAtomicIntegerIiEC2Ei
DA:103,0
DA:114,0
DA:115,0
DA:221,0
end_of_record
SF:/usr/include/x86_64-linux-gnu/qt5/QtCore/qatomic.h
FN:60,_ZN14QAtomicIntegerIiEC2Ei
FNDA:0,_ZN14QAtomicIntegerIiEC2Ei
FN:162,_ZN10QAtomicIntC2Ei
FNDA:0,_ZN10QAtomicIntC2Ei
DA:60,0
DA:162,0
end_of_record
SF:/usr/include/x86_64-linux-gnu/qt5/QtCore/qlist.h
FN:100,_ZN9QListData7disposeEv
FNDA:0,_ZN9QListData7disposeEv
FN:113,_ZNK9QListData4sizeEv
FNDA:155,_ZNK9QListData4sizeEv
FN:115,_ZNK9QListData2atEi
FNDA:179,_ZNK9QListData2atEi
FN:116,_ZNK9QListData5beginEv
FNDA:151,_ZNK9QListData5beginEv
FN:117,_ZNK9QListData3endEv
FNDA:151,_ZNK9QListData3endEv
FN:142,_ZN5QListI7QStringE4Node1tEv
FNDA:626,_ZN5QListI7QStringE4Node1tEv
FN:151,_ZN5QListI7QStringEC2Ev
FNDA:2,_ZN5QListI7QStringEC2Ev
FN:156,_ZN5QListI7QStringEC2EOS1_
FNDA:12,_ZN5QListI7QStringEC2EOS1_
FN:170,_ZNK5QListI7QStringE4sizeEv
FNDA:45,_ZNK5QListI7QStringE4sizeEv
FN:172,_ZN5QListI7QStringE6detachEv
FNDA:369,_ZN5QListI7QStringE6detachEv
FN:235,_ZN5QListI7QStringE8iteratorC2EPNS1_4NodeE
FNDA:302,_ZN5QListI7QStringE8iteratorC2EPNS1_4NodeE
FN:241,_ZNK5QListI7QStringE8iteratordeEv
FNDA:451,_ZNK5QListI7QStringE8iteratordeEv
FN:245,_ZNK5QListI7QStringE8iteratorneERKS2_
FNDA:602,_ZNK5QListI7QStringE8iteratorneERKS2_
FN:264,_ZN5QListI7QStringE8iteratorppEv
FNDA:451,_ZN5QListI7QStringE8iteratorppEv
FN:324,_ZN5QListI7QStringE5beginEv
FNDA:151,_ZN5QListI7QStringE5beginEv
FN:328,_ZN5QListI7QStringE3endEv
FNDA:151,_ZN5QListI7QStringE3endEv
FN:459,_ZN5QListI7QStringE9node_copyEPNS1_4NodeES3_S3_
FNDA:0,_ZN5QListI7QStringE9node_copyEPNS1_4NodeES3_S3_
FN:494,_ZN5QListI7QStringE13node_destructEPNS1_4NodeES3_
FNDA:196,_ZN5QListI7QStringE13node_destructEPNS1_4NodeES3_
FN:741,_ZNK5QListI7QStringE5valueEi
FNDA:108,_ZNK5QListI7QStringE5valueEi
FN:786,_ZN5QListI7QStringE13detach_helperEi
FNDA:0,_ZN5QListI7QStringE13detach_helperEi
FN:803,_ZN5QListI7QStringE13detach_helperEv
FNDA:0,_ZN5QListI7QStringE13detach_helperEv
FN:809,_ZN5QListI7QStringEC2ERKS1_
FNDA:28,_ZN5QListI7QStringEC2ERKS1_
FN:827,_ZN5QListI7QStringED2Ev
FNDA:238,_ZN5QListI7QStringED2Ev
FN:866,_ZN5QListI7QStringE7deallocEPN9QListData4DataE
FNDA:196,_ZN5QListI7QStringE7deallocEPN9QListData4DataE
DA:100,0
DA:113,155
DA:115,179
DA:116,151
DA:117,151
DA:142,626
DA:144,626
DA:151,2
DA:156,12
DA:157,12
DA:170,45
DA:172,369
DA:235,302
DA:241,451
DA:245,602
DA:264,451
DA:324,151
DA:328,151
DA:459,0
DA:461,0
DA:477,0
DA:478,0
DA:479,0
DA:480,0
DA:491,0
DA:494,196
DA:499,2262
DA:500,196
DA:741,108
DA:743,108
DA:744,0
DA:746,108
DA:786,0
DA:788,0
DA:789,0
DA:791,0
DA:792,0
DA:793,0
DA:794,0
DA:795,0
DA:798,0
DA:799,0
DA:800,0
DA:803,0
DA:805,0
DA:806,0
DA:809,28
DA:810,0
DA:812,28
DA:813,0
DA:816,0
DA:817,0
DA:818,0
DA:819,0
DA:820,0
DA:821,0
DA:824,28
DA:827,238
DA:829,238
DA:830,196
DA:831,238
DA:866,196
DA:868,196
DA:869,196
DA:870,196
DA:871,196
end_of_record
SF:/usr/include/x86_64-linux-gnu/qt5/QtCore/qflags.h
FN:120,_ZN6QFlagsIN10QEventLoop17ProcessEventsFlagEEC2ES1_
FNDA:28,_ZN6QFlagsIN10QEventLoop17ProcessEventsFlagEEC2ES1_
FN:120,_ZN6QFlagsIN10QArrayData16AllocationOptionEEC2ES1_
FNDA:55,_ZN6QFlagsIN10QArrayData16AllocationOptionEEC2ES1_
FN:120,_ZN6QFlagsIN2Qt19ImageConversionFlagEEC2ES1_
FNDA:0,_ZN6QFlagsIN2Qt19ImageConversionFlagEEC2ES1_
FN:120,_ZN6QFlagsIN2Qt13AlignmentFlagEEC2ES1_
FNDA:109,_ZN6QFlagsIN2Qt13AlignmentFlagEEC2ES1_
FN:121,_ZN6QFlagsIN2Qt13AlignmentFlagEEC2EMNS2_7PrivateEi
FNDA:0,_ZN6QFlagsIN2Qt13AlignmentFlagEEC2EMNS2_7PrivateEi
FN:121,_ZN6QFlagsIN2Qt10WindowTypeEEC2EMNS2_7PrivateEi
FNDA:0,_ZN6QFlagsIN2Qt10WindowTypeEEC2EMNS2_7PrivateEi
DA:120,28
DA:120,55
DA:120,0
DA:120,109
DA:121,0
DA:121,0
end_of_record
SF:/usr/include/x86_64-linux-gnu/qt5/QtCore/qshareddata.h
FN:233,_ZN28QExplicitlySharedDataPointerI15QPlatformPixmapE4swapERS1_
FNDA:0,_ZN28QExplicitlySharedDataPointerI15QPlatformPixmapE4swapERS1_
FN:304,_Z5qSwapI15QPlatformPixmapEvR28QExplicitlySharedDataPointerIT_ES4_
FNDA:0,_Z5qSwapI15QPlatformPixmapEvR28QExplicitlySharedDataPointerIT_ES4_
DA:233,0
DA:234,0
DA:304,0
DA:305,0
end_of_record
SF:/usr/include/x86_64-linux-gnu/qt5/QtCore/qrefcount.h
FN:54,_ZN9QtPrivate8RefCount3refEv
FNDA:0,_ZN9QtPrivate8RefCount3refEv
FN:65,_ZN9QtPrivate8RefCount5derefEv
FNDA:0,_ZN9QtPrivate8RefCount5derefEv
FN:99,_ZNK9QtPrivate8RefCount8isSharedEv
FNDA:1128,_ZNK9QtPrivate8RefCount8isSharedEv
DA:54,0
DA:55,0
DA:57,0
DA:58,0
DA:60,0
DA:61,0
DA:62,0
DA:65,0
DA:66,0
DA:68,0
DA:69,0
DA:71,0
DA:72,0
DA:73,0
DA:99,1128
DA:101,1128
DA:102,1128
end_of_record
SF:/usr/include/x86_64-linux-gnu/qt5/QtCore/qobject.h
FN:228,_ZN7QObject7connectIM10PodrundauiFvvEM7KoZnauiFvvEEEN11QMetaObject10ConnectionEPKN9QtPrivate15FunctionPointerIT_E6ObjectESB_PKNSA_IT0_E6ObjectESG_N2Qt14ConnectionTypeE
FNDA:0,_ZN7QObject7connectIM10PodrundauiFvvEM7KoZnauiFvvEEEN11QMetaObject10ConnectionEPKN9QtPrivate15FunctionPointerIT_E6ObjectESB_PKNSA_IT0_E6ObjectESG_N2Qt14ConnectionTypeE
FN:228,_ZN7QObject7connectIM7KoZnauiFvvES3_EEN11QMetaObject10ConnectionEPKN9QtPrivate15FunctionPointerIT_E6ObjectES8_PKNS7_IT0_E6ObjectESD_N2Qt14ConnectionTypeE
FNDA:4,_ZN7QObject7connectIM7KoZnauiFvvES3_EEN11QMetaObject10ConnectionEPKN9QtPrivate15FunctionPointerIT_E6ObjectES8_PKNS7_IT0_E6ObjectESD_N2Qt14ConnectionTypeE
FN:228,_ZN7QObject7connectIM15QAbstractButtonFvbEM7KoZnauiFvvEEEN11QMetaObject10ConnectionEPKN9QtPrivate15FunctionPointerIT_E6ObjectESB_PKNSA_IT0_E6ObjectESG_N2Qt14ConnectionTypeE
FNDA:10,_ZN7QObject7connectIM15QAbstractButtonFvbEM7KoZnauiFvvEEEN11QMetaObject10ConnectionEPKN9QtPrivate15FunctionPointerIT_E6ObjectESB_PKNSA_IT0_E6ObjectESG_N2Qt14ConnectionTypeE
DA:228,0
DA:246,0
DA:247,0
DA:248,0
DA:252,0
DA:254,0
DA:228,4
DA:246,4
DA:247,4
DA:248,0
DA:252,4
DA:254,4
DA:228,10
DA:246,10
DA:247,10
DA:248,0
DA:252,10
DA:254,10
end_of_record
SF:/usr/include/x86_64-linux-gnu/qt5/QtCore/qvector.h
FN:69,_ZN7QVectorI11QStringListEC2Ev
FNDA:2,_ZN7QVectorI11QStringListEC2Ev
FN:73,_ZN7QVectorI11QStringListED2Ev
FNDA:2,_ZN7QVectorI11QStringListED2Ev
FN:106,_ZNK7QVectorI11QStringListE10isDetachedEv
FNDA:28,_ZNK7QVectorI11QStringListE10isDetachedEv
FN:324,_ZN7QVectorI11QStringListE16defaultConstructEPS0_S2_
FNDA:0,_ZN7QVectorI11QStringListE16defaultConstructEPS0_S2_
FN:347,_ZN7QVectorI11QStringListE8destructEPS0_S2_
FNDA:2,_ZN7QVectorI11QStringListE8destructEPS0_S2_
FN:428,_ZNK7QVectorI11QStringListE2atEi
FNDA:108,_ZNK7QVectorI11QStringListE2atEi
FN:540,_ZN7QVectorI11QStringListE8freeDataEP15QTypedArrayDataIS0_E
FNDA:2,_ZN7QVectorI11QStringListE8freeDataEP15QTypedArrayDataIS0_E
FN:552,_ZN7QVectorI11QStringListE11reallocDataEii6QFlagsIN10QArrayData16AllocationOptionEE
FNDA:6,_ZN7QVectorI11QStringListE11reallocDataEii6QFlagsIN10QArrayData16AllocationOptionEE
FN:676,_ZN7QVectorI11QStringListE6appendERKS0_
FNDA:28,_ZN7QVectorI11QStringListE6appendERKS0_
DA:69,2
DA:73,2
DA:106,28
DA:324,0
DA:327,0
DA:328,0
DA:333,0
DA:347,30
DA:350,30
DA:351,28
DA:354,2
DA:428,108
DA:430,108
DA:540,2
DA:542,2
DA:543,2
DA:544,2
DA:552,6
DA:555,6
DA:557,6
DA:559,6
DA:560,6
DA:563,6
DA:564,6
DA:570,6
DA:572,6
DA:573,6
DA:574,6
DA:576,6
DA:578,2
DA:580,2
DA:581,0
DA:583,0
DA:584,0
DA:586,0
DA:588,0
DA:589,0
DA:592,4
DA:593,4
DA:596,4
DA:597,0
DA:600,6
DA:606,0
DA:607,0
DA:608,0
DA:610,0
DA:611,0
DA:615,0
DA:616,0
DA:617,0
DA:619,6
DA:624,0
DA:625,0
DA:627,0
DA:629,0
DA:632,0
DA:634,6
DA:635,6
DA:636,4
DA:639,0
DA:641,4
DA:644,6
DA:655,6
DA:676,28
DA:678,28
DA:679,28
DA:680,12
DA:681,6
DA:682,6
DA:685,6
DA:691,22
DA:695,28
DA:696,28
end_of_record
SF:/usr/include/x86_64-linux-gnu/qt5/QtCore/qlogging.h
FN:68,_ZN18QMessageLogContextC2EPKciS1_S1_
FNDA:392,_ZN18QMessageLogContextC2EPKciS1_S1_
FN:91,_ZN14QMessageLoggerC2EPKciS1_
FNDA:392,_ZN14QMessageLoggerC2EPKciS1_
DA:68,392
DA:69,392
DA:91,392
DA:92,392
end_of_record
SF:/usr/include/x86_64-linux-gnu/qt5/QtCore/qtextstream.h
FN:230,_ZlsR11QTextStreamPFS0_S0_E
FNDA:147,_ZlsR11QTextStreamPFS0_S0_E
DA:230,147
DA:231,147
end_of_record
SF:/usr/include/x86_64-linux-gnu/qt5/QtCore/qdebug.h
FN:125,_ZN6QDebug10maybeSpaceEv
FNDA:674,_ZN6QDebug10maybeSpaceEv
FN:137,_ZN6QDebuglsEb
FNDA:6,_ZN6QDebuglsEb
FN:145,_ZN6QDebuglsEi
FNDA:138,_ZN6QDebuglsEi
FN:153,_ZN6QDebuglsEPKc
FNDA:379,_ZN6QDebuglsEPKc
FN:155,_ZN6QDebuglsERK7QString
FNDA:151,_ZN6QDebuglsERK7QString
FN:165,_ZN6QDebuglsEPFR11QTextStreamS1_E
FNDA:147,_ZN6QDebuglsEPFR11QTextStreamS1_E
DA:125,674
DA:137,6
DA:145,138
DA:153,379
DA:155,151
DA:165,147
DA:166,147
DA:167,147
end_of_record
SF:/usr/include/x86_64-linux-gnu/qt5/QtCore/qiodevice.h
FN:136,_ZN9QIODevice5writeERK10QByteArray
FNDA:124,_ZN9QIODevice5writeERK10QByteArray
DA:136,124
DA:137,124
end_of_record
SF:/usr/include/x86_64-linux-gnu/qt5/QtCore/qsize.h
FN:119,_ZN5QSizeC2Eii
FNDA:0,_ZN5QSizeC2Eii
FN:130,_ZNK5QSize5widthEv
FNDA:266,_ZNK5QSize5widthEv
FN:133,_ZNK5QSize6heightEv
FNDA:266,_ZNK5QSize6heightEv
DA:119,0
DA:130,266
DA:131,266
DA:133,266
DA:134,266
end_of_record
SF:/usr/include/c++/9/bits/move.h
FN:99,_ZSt4moveIRP15QPlatformPixmapEONSt16remove_referenceIT_E4typeEOS4_
FNDA:0,_ZSt4moveIRP15QPlatformPixmapEONSt16remove_referenceIT_E4typeEOS4_
FN:99,_ZSt4moveIR11QStringListEONSt16remove_referenceIT_E4typeEOS3_
FNDA:6,_ZSt4moveIR11QStringListEONSt16remove_referenceIT_E4typeEOS3_
FN:182,_ZSt4swapIP15QPlatformPixmapENSt9enable_ifIXsrSt6__and_IJSt6__not_ISt15__is_tuple_likeIT_EESt21is_move_constructibleIS6_ESt18is_move_assignableIS6_EEE5valueEvE4typeERS6_SG_
FNDA:0,_ZSt4swapIP15QPlatformPixmapENSt9enable_ifIXsrSt6__and_IJSt6__not_ISt15__is_tuple_likeIT_EESt21is_move_constructibleIS6_ESt18is_move_assignableIS6_EEE5valueEvE4typeERS6_SG_
DA:99,0
DA:100,0
DA:99,6
DA:100,6
DA:182,0
DA:193,0
DA:194,0
DA:195,0
DA:196,0
end_of_record
SF:/usr/include/c++/9/atomic
FN:759,_ZNSt6atomicIiEC2Ei
FNDA:0,_ZNSt6atomicIiEC2Ei
DA:759,0
end_of_record
SF:/usr/include/x86_64-linux-gnu/qt5/QtWidgets/qwidget.h
FN:787,_ZN7QWidget14setMinimumSizeERK5QSize
FNDA:146,_ZN7QWidget14setMinimumSizeERK5QSize
FN:790,_ZN7QWidget14setMaximumSizeERK5QSize
FNDA:120,_ZN7QWidget14setMaximumSizeERK5QSize
FN:838,_ZN7QWidget6resizeEii
FNDA:0,_ZN7QWidget6resizeEii
FN:850,_ZNK7QWidget4sizeEv
FNDA:12,_ZNK7QWidget4sizeEv
DA:787,146
DA:788,146
DA:790,120
DA:791,120
DA:838,0
DA:839,0
DA:850,12
DA:851,12
end_of_record
SF:/home/user/Desktop/pobedi-me-ako-znas/build/application/application_autogen/include/ui_kozna.h
FN:54,_ZN10Ui_KoZnaui7setupUiEP11QMainWindow
FNDA:2,_ZN10Ui_KoZnaui7setupUiEP11QMainWindow
FN:223,_ZN10Ui_KoZnaui13retranslateUiEP11QMainWindow
FNDA:2,_ZN10Ui_KoZnaui13retranslateUiEP11QMainWindow
DA:54,2
DA:56,2
DA:57,2
DA:58,2
DA:59,2
DA:60,2
DA:61,2
DA:62,2
DA:63,2
DA:64,2
DA:65,2
DA:66,2
DA:67,2
DA:68,2
DA:69,2
DA:70,2
DA:71,2
DA:72,2
DA:73,2
DA:74,2
DA:75,2
DA:76,4
DA:77,4
DA:78,2
DA:79,2
DA:80,4
DA:81,2
DA:82,2
DA:83,2
DA:84,4
DA:85,2
DA:87,2
DA:89,2
DA:90,2
DA:91,2
DA:93,2
DA:95,2
DA:96,2
DA:97,2
DA:99,2
DA:101,2
DA:102,4
DA:103,2
DA:104,2
DA:105,2
DA:106,2
DA:107,2
DA:108,2
DA:109,2
DA:110,2
DA:111,2
DA:112,2
DA:113,2
DA:114,2
DA:115,2
DA:116,2
DA:117,2
DA:118,4
DA:119,2
DA:120,2
DA:121,2
DA:122,2
DA:124,2
DA:125,2
DA:127,2
DA:129,2
DA:130,2
DA:132,2
DA:134,2
DA:135,2
DA:136,2
DA:137,2
DA:138,2
DA:139,2
DA:140,2
DA:141,2
DA:142,2
DA:143,2
DA:144,2
DA:146,2
DA:147,2
DA:149,2
DA:151,2
DA:152,2
DA:154,2
DA:157,2
DA:160,2
DA:162,2
DA:163,2
DA:164,4
DA:165,2
DA:166,2
DA:167,2
DA:168,2
DA:169,2
DA:170,2
DA:172,2
DA:174,2
DA:175,2
DA:176,2
DA:177,2
DA:178,2
DA:180,2
DA:182,2
DA:183,2
DA:184,2
DA:186,2
DA:188,2
DA:189,2
DA:190,2
DA:192,2
DA:194,2
DA:195,2
DA:196,2
DA:197,2
DA:199,2
DA:202,2
DA:204,2
DA:205,2
DA:207,2
DA:209,2
DA:210,2
DA:211,2
DA:212,2
DA:213,2
DA:214,2
DA:215,2
DA:216,2
DA:218,2
DA:220,2
DA:221,2
DA:223,2
DA:225,2
DA:226,2
DA:227,2
DA:228,2
DA:229,2
DA:230,2
DA:231,2
DA:232,2
DA:233,2
end_of_record
SF:/home/user/Desktop/pobedi-me-ako-znas/application/koznaui.cpp
FN:7,_ZN7KoZnauiC2EP7QWidget
FNDA:0,_ZN7KoZnauiC2EP7QWidget
FN:42,_ZN7KoZnauiC2EP7QWidgetP10QTcpSocket7QStringS4_bii
FNDA:2,_ZN7KoZnauiC2EP7QWidgetP10QTcpSocket7QStringS4_bii
FN:97,_ZN7KoZnaui16getPlayer1PointsEv
FNDA:4,_ZN7KoZnaui16getPlayer1PointsEv
FN:102,_ZN7KoZnaui16getPlayer2PointsEv
FNDA:4,_ZN7KoZnaui16getPlayer2PointsEv
FN:107,_ZN7KoZnaui10getPlayer1Ev
FNDA:0,_ZN7KoZnaui10getPlayer1Ev
FN:112,_ZN7KoZnaui10getPlayer2Ev
FNDA:0,_ZN7KoZnaui10getPlayer2Ev
FN:117,_ZN7KoZnaui7getTimeEv
FNDA:0,_ZN7KoZnaui7getTimeEv
FN:122,_ZN7KoZnauiD0Ev
FNDA:2,_ZN7KoZnauiD0Ev
FN:122,_ZN7KoZnauiD2Ev
FNDA:2,_ZN7KoZnauiD2Ev
FN:127,_ZN7KoZnaui15displayQuestionEi
FNDA:16,_ZN7KoZnaui15displayQuestionEi
FN:141,_ZN7KoZnaui15generisiPitanjaE7QString
FNDA:4,_ZN7KoZnaui15generisiPitanjaE7QString
FN:162,_ZN7KoZnaui17on_pushButtonAns1Ev
FNDA:0,_ZN7KoZnaui17on_pushButtonAns1Ev
FN:181,_ZN7KoZnaui17on_pushButtonAns2Ev
FNDA:0,_ZN7KoZnaui17on_pushButtonAns2Ev
FN:201,_ZN7KoZnaui17on_pushButtonAns3Ev
FNDA:0,_ZN7KoZnaui17on_pushButtonAns3Ev
FN:219,_ZN7KoZnaui17on_pushButtonAns4Ev
FNDA:0,_ZN7KoZnaui17on_pushButtonAns4Ev
FN:238,_ZN7KoZnaui28on_pushButtonAns1MultiplayerEv
FNDA:3,_ZN7KoZnaui28on_pushButtonAns1MultiplayerEv
FN:259,_ZN7KoZnaui28on_pushButtonAns2MultiplayerEv
FNDA:8,_ZN7KoZnaui28on_pushButtonAns2MultiplayerEv
FN:281,_ZN7KoZnaui28on_pushButtonAns3MultiplayerEv
FNDA:3,_ZN7KoZnaui28on_pushButtonAns3MultiplayerEv
FN:302,_ZN7KoZnaui28on_pushButtonAns4MultiplayerEv
FNDA:0,_ZN7KoZnaui28on_pushButtonAns4MultiplayerEv
FN:321,_ZN7KoZnaui8on_DALJEEv
FNDA:0,_ZN7KoZnaui8on_DALJEEv
FN:332,_ZN7KoZnaui5guessE7QString
FNDA:14,_ZN7KoZnaui5guessE7QString
FN:346,_ZN7KoZnaui13displayAnswerEv
FNDA:10,_ZN7KoZnaui13displayAnswerEv
FN:371,_ZN7KoZnaui16getCorrectAnswerEv
FNDA:24,_ZN7KoZnaui16getCorrectAnswerEv
FN:378,_ZN7KoZnaui10on_timesUpEv
FNDA:12,_ZN7KoZnaui10on_timesUpEv
FN:388,_ZN7KoZnaui11on_gameEndsEv
FNDA:2,_ZN7KoZnaui11on_gameEndsEv
FN:398,_ZN7KoZnaui10updateTimeEv
FNDA:60,_ZN7KoZnaui10updateTimeEv
FN:417,_ZN7KoZnaui9disableUiEv
FNDA:18,_ZN7KoZnaui9disableUiEv
FN:426,_ZN7KoZnaui8enableUiEv
FNDA:16,_ZN7KoZnaui8enableUiEv
FN:435,_ZN7KoZnaui5getUIEv
FNDA:0,_ZN7KoZnaui5getUIEv
FN:440,_ZN7KoZnaui12restartColorEv
FNDA:16,_ZN7KoZnaui12restartColorEv
FN:451,_ZN7KoZnaui9startGameEv
FNDA:0,_ZN7KoZnaui9startGameEv
FN:465,_ZN7KoZnaui20processServerMessageE7QString
FNDA:66,_ZN7KoZnaui20processServerMessageE7QString
FN:564,_ZN7KoZnaui15on_podrundaEndsEv
FNDA:0,_ZN7KoZnaui15on_podrundaEndsEv
FN:597,_ZN7KoZnaui11onReadyReadEv
FNDA:35,_ZN7KoZnaui11onReadyReadEv
FN:613,_ZN7KoZnaui11sendMessageEP10QTcpSocket7QString
FNDA:24,_ZN7KoZnaui11sendMessageEP10QTcpSocket7QString
DA:7,0
DA:9,0
DA:11,0
DA:12,0
DA:13,0
DA:14,0
DA:15,0
DA:17,0
DA:18,0
DA:19,0
DA:20,0
DA:22,0
DA:24,0
DA:26,0
DA:28,0
DA:29,0
DA:30,0
DA:32,0
DA:35,0
DA:37,0
DA:40,0
DA:42,2
DA:43,2
DA:44,2
DA:46,2
DA:47,2
DA:48,2
DA:49,2
DA:50,2
DA:51,2
DA:52,2
DA:53,2
DA:54,2
DA:55,2
DA:57,2
DA:59,2
DA:61,4
DA:62,2
DA:63,2
DA:64,2
DA:65,2
DA:67,2
DA:69,2
DA:70,2
DA:71,2
DA:72,2
DA:74,2
DA:75,2
DA:76,2
DA:77,2
DA:78,2
DA:80,2
DA:81,2
DA:83,2
DA:85,2
DA:86,2
DA:87,2
DA:89,2
DA:91,2
DA:95,2
DA:97,4
DA:99,4
DA:102,4
DA:104,4
DA:107,0
DA:109,0
DA:112,0
DA:114,0
DA:117,0
DA:119,0
DA:122,2
DA:125,2
DA:122,2
DA:124,2
DA:125,2
DA:127,16
DA:129,16
DA:131,16
DA:132,16
DA:134,16
DA:135,16
DA:136,16
DA:137,16
DA:138,16
DA:139,16
DA:141,4
DA:143,4
DA:145,8
DA:146,4
DA:148,32
DA:150,56
DA:151,28
DA:153,28
DA:155,4
DA:157,4
DA:159,4
DA:160,4
DA:162,0
DA:165,0
DA:167,0
DA:168,0
DA:169,0
DA:171,0
DA:175,0
DA:176,0
DA:178,0
DA:179,0
DA:181,0
DA:184,0
DA:186,0
DA:187,0
DA:189,0
DA:191,0
DA:195,0
DA:196,0
DA:198,0
DA:199,0
DA:201,0
DA:203,0
DA:205,0
DA:206,0
DA:207,0
DA:209,0
DA:213,0
DA:214,0
DA:216,0
DA:217,0
DA:219,0
DA:222,0
DA:224,0
DA:225,0
DA:226,0
DA:228,0
DA:232,0
DA:233,0
DA:236,0
DA:238,3
DA:240,3
DA:242,6
DA:243,3
DA:245,3
DA:247,3
DA:248,3
DA:252,0
DA:253,0
DA:254,0
DA:257,3
DA:259,8
DA:261,8
DA:263,16
DA:264,8
DA:265,8
DA:267,1
DA:268,1
DA:273,7
DA:274,7
DA:276,7
DA:279,8
DA:281,3
DA:283,3
DA:285,6
DA:286,3
DA:288,3
DA:290,0
DA:291,0
DA:295,3
DA:296,3
DA:297,3
DA:300,3
DA:302,0
DA:304,0
DA:306,0
DA:307,0
DA:309,0
DA:310,0
DA:314,0
DA:315,0
DA:316,0
DA:319,0
DA:321,0
DA:323,0
DA:325,0
DA:328,0
DA:330,0
DA:332,14
DA:334,28
DA:336,14
DA:338,4
DA:342,10
DA:346,10
DA:348,20
DA:350,10
DA:352,10
DA:354,5
DA:357,10
DA:359,1
DA:361,10
DA:363,0
DA:365,10
DA:367,4
DA:369,10
DA:371,24
DA:373,24
DA:375,24
DA:378,12
DA:380,12
DA:382,12
DA:383,12
DA:385,12
DA:386,12
DA:388,2
DA:390,2
DA:391,2
DA:394,2
DA:395,2
DA:396,2
DA:398,60
DA:400,60
DA:403,60
DA:406,60
DA:408,14
DA:409,2
DA:412,12
DA:415,60
DA:417,18
DA:419,18
DA:420,18
DA:421,18
DA:422,18
DA:423,18
DA:424,18
DA:426,16
DA:428,16
DA:429,16
DA:430,16
DA:431,16
DA:432,16
DA:433,16
DA:435,0
DA:437,0
DA:440,16
DA:442,16
DA:443,16
DA:444,16
DA:445,16
DA:446,16
DA:447,16
DA:448,16
DA:451,0
DA:453,0
DA:454,0
DA:455,0
DA:457,0
DA:458,0
DA:459,0
DA:460,0
DA:462,0
DA:465,66
DA:467,66
DA:468,66
DA:470,4
DA:471,4
DA:474,66
DA:476,7
DA:479,3
DA:481,4
DA:484,4
DA:488,66
DA:490,7
DA:491,7
DA:494,1
DA:499,6
DA:503,66
DA:505,14
DA:508,66
DA:510,14
DA:512,14
DA:515,14
DA:517,14
DA:521,66
DA:524,14
DA:525,14
DA:528,14
DA:530,14
DA:534,66
DA:536,0
DA:538,0
DA:539,0
DA:540,0
DA:541,0
DA:543,66
DA:545,2
DA:546,2
DA:549,66
DA:553,2
DA:556,66
DA:560,2
DA:562,66
DA:564,0
DA:566,0
DA:567,0
DA:568,0
DA:571,0
DA:572,0
DA:576,0
DA:578,0
DA:580,0
DA:583,0
DA:585,0
DA:587,0
DA:588,0
DA:589,0
DA:590,0
DA:593,0
DA:594,0
DA:597,35
DA:599,70
DA:600,70
DA:602,70
DA:604,136
DA:606,101
DA:608,66
DA:611,35
DA:613,24
DA:615,24
DA:616,24
DA:617,24
DA:618,24
end_of_record
SF:/usr/include/c++/9/new
FN:173,_ZnwmPv
FNDA:166,_ZnwmPv
FN:179,_ZdlPvS_
FNDA:0,_ZdlPvS_
DA:173,166
DA:174,166
DA:179,0
end_of_record
SF:/usr/include/x86_64-linux-gnu/qt5/QtCore/qatomic_cxx11.h
FN:225,_ZN10QAtomicOpsIiE4loadIiEET_RKSt6atomicIS2_E
FNDA:0,_ZN10QAtomicOpsIiE4loadIiEET_RKSt6atomicIS2_E
FN:263,_ZN10QAtomicOpsIiE3refIiEEbRSt6atomicIT_E
FNDA:0,_ZN10QAtomicOpsIiE3refIiEEbRSt6atomicIT_E
FN:269,_ZN10QAtomicOpsIiE5derefIiEEbRSt6atomicIT_E
FNDA:0,_ZN10QAtomicOpsIiE5derefIiEEbRSt6atomicIT_E
DA:225,0
DA:227,0
DA:263,0
DA:265,0
DA:269,0
DA:271,0
end_of_record
SF:/usr/include/x86_64-linux-gnu/qt5/QtGui/qpalette.h
FN:200,_ZN8QPalette8setBrushENS_9ColorRoleERK6QBrush
FNDA:12,_ZN8QPalette8setBrushENS_9ColorRoleERK6QBrush
DA:200,12
DA:201,12
end_of_record
SF:/usr/include/x86_64-linux-gnu/qt5/QtGui/qfont.h
FN:341,_ZN5QFont7setBoldEb
FNDA:10,_ZN5QFont7setBoldEb
DA:341,10
DA:342,10
end_of_record
SF:/usr/include/x86_64-linux-gnu/qt5/QtGui/qpixmap.h
FN:77,_ZN7QPixmapaSEOS_
FNDA:0,_ZN7QPixmapaSEOS_
DA:77,0
DA:78,0
end_of_record
SF:/usr/include/x86_64-linux-gnu/qt5/QtCore/qglobal.h
FN:911,_Z5qSwapIP15QPlatformPixmapEvRT_S3_
FNDA:0,_Z5qSwapIP15QPlatformPixmapEvRT_S3_
DA:911,0
DA:915,0
DA:916,0
end_of_record
SF:/usr/include/c++/9/iostream
end_of_record
SF:/usr/include/x86_64-linux-gnu/qt5/QtCore/qstring.h
FN:239,_ZNK7QString4sizeEv
FNDA:182,_ZNK7QString4sizeEv
FN:483,_ZN7QStringpLERKS_
FNDA:0,_ZN7QStringpLERKS_
FN:549,_ZNKR7QString6toUtf8Ev
FNDA:138,_ZNKR7QString6toUtf8Ev
FN:570,_ZN7QString8fromUtf8EPKci
FNDA:0,_ZN7QString8fromUtf8EPKci
FN:580,_ZN7QString8fromUtf8ERK10QByteArray
FNDA:143,_ZN7QString8fromUtf8ERK10QByteArray
FN:699,_ZN7QStringC2EPKc
FNDA:1688,_ZN7QStringC2EPKc
FN:933,_ZNK7QString6lengthEv
FNDA:162,_ZNK7QString6lengthEv
FN:941,_ZNK7QString7isEmptyEv
FNDA:0,_ZNK7QString7isEmptyEv
FN:949,_ZNK7QString9constDataEv
FNDA:199,_ZNK7QString9constDataEv
FN:957,_ZN7QStringC2ERKS_
FNDA:0,_ZN7QStringC2ERKS_
FN:1134,_ZN7QStringC2Ev
FNDA:54,_ZN7QStringC2Ev
FN:1135,_ZN7QStringD2Ev
FNDA:0,_ZN7QStringD2Ev
FN:1237,_ZNK7QStringeqEPKc
FNDA:32,_ZNK7QStringeqEPKc
FN:1356,_ZplRK7QStringPKc
FNDA:0,_ZplRK7QStringPKc
FN:1358,_ZplPKcRK7QString
FNDA:0,_ZplPKcRK7QString
DA:239,182
DA:483,0
DA:549,138
DA:550,138
DA:570,0
DA:572,0
DA:580,143
DA:581,143
DA:699,1688
DA:700,1688
DA:701,1688
DA:933,162
DA:934,162
DA:941,0
DA:942,0
DA:949,199
DA:950,199
DA:957,0
DA:958,0
DA:1134,54
DA:1135,0
DA:1237,32
DA:1238,32
DA:1356,0
DA:1357,0
DA:1358,0
DA:1359,0
end_of_record
SF:/usr/include/x86_64-linux-gnu/qt5/QtCore/qbytearray.h
FN:76,_Z8qstrnlenPKcj
FNDA:155,_Z8qstrnlenPKcj
FN:476,_ZN10QByteArrayD2Ev
FNDA:323,_ZN10QByteArrayD2Ev
FN:477,_ZNK10QByteArray4sizeEv
FNDA:279,_ZNK10QByteArray4sizeEv
FN:497,_ZNK10QByteArray4dataEv
FNDA:143,_ZNK10QByteArray4dataEv
FN:499,_ZNK10QByteArray9constDataEv
FNDA:291,_ZNK10QByteArray9constDataEv
DA:76,155
DA:78,155
DA:79,155
DA:80,13287
DA:81,13132
DA:83,155
DA:476,323
DA:477,279
DA:478,279
DA:497,143
DA:498,143
DA:499,291
DA:500,291
end_of_record
SF:/usr/include/x86_64-linux-gnu/qt5/QtCore/qrect.h
FN:184,_ZN5QRectC2Eiiii
FNDA:0,_ZN5QRectC2Eiiii
FN:265,_ZNK5QRect5widthEv
FNDA:0,_ZNK5QRect5widthEv
FN:268,_ZNK5QRect6heightEv
FNDA:0,_ZNK5QRect6heightEv
FN:271,_ZNK5QRect4sizeEv
FNDA:12,_ZNK5QRect4sizeEv
DA:184,0
DA:185,0
DA:265,0
DA:266,0
DA:268,0
DA:269,0
DA:271,12
DA:272,12
end_of_record
SF:/home/user/Desktop/pobedi-me-ako-znas/application/koznaui.h
end_of_record
SF:/usr/include/x86_64-linux-gnu/qt5/QtGui/qcolor.h
FN:286,_ZN6QColorC2Eiiii
FNDA:28,_ZN6QColorC2Eiiii
DA:286,28
DA:287,28
end_of_record
SF:/usr/include/x86_64-linux-gnu/qt5/QtCore/qstringlist.h
FN:69,_ZN19QListSpecialMethodsI7QStringED2Ev
FNDA:238,_ZN19QListSpecialMethodsI7QStringED2Ev
FN:103,_ZN11QStringListC2Ev
FNDA:2,_ZN11QStringListC2Ev
DA:69,238
DA:103,2
end_of_record
SF:/usr/include/x86_64-linux-gnu/qt5/QtCore/qarraydata.h
FN:57,_ZN10QArrayData4dataEv
FNDA:2110,_ZN10QArrayData4dataEv
FN:123,_ZN10QArrayData10sharedNullEv
FNDA:97,_ZN10QArrayData10sharedNullEv
FN:208,_ZN15QTypedArrayDataI11QStringListE4dataEv
FNDA:158,_ZN15QTypedArrayDataI11QStringListE4dataEv
FN:208,_ZN15QTypedArrayDataItE4dataEv
FNDA:565,_ZN15QTypedArrayDataItE4dataEv
FN:208,_ZN15QTypedArrayDataIcE4dataEv
FNDA:434,_ZN15QTypedArrayDataIcE4dataEv
FN:211,_ZN15QTypedArrayDataI11QStringListE5beginEPS0_
FNDA:128,_ZN15QTypedArrayDataI11QStringListE5beginEPS0_
FN:212,_ZN15QTypedArrayDataI11QStringListE3endEPS0_
FNDA:30,_ZN15QTypedArrayDataI11QStringListE3endEPS0_
FN:220,_ZN15QTypedArrayDataI11QStringListE8allocateEm6QFlagsIN10QArrayData16AllocationOptionEE
FNDA:6,_ZN15QTypedArrayDataI11QStringListE8allocateEm6QFlagsIN10QArrayData16AllocationOptionEE
FN:236,_ZN15QTypedArrayDataI11QStringListE10deallocateEP10QArrayData
FNDA:6,_ZN15QTypedArrayDataI11QStringListE10deallocateEP10QArrayData
FN:236,_ZN15QTypedArrayDataItE10deallocateEP10QArrayData
FNDA:0,_ZN15QTypedArrayDataItE10deallocateEP10QArrayData
FN:236,_ZN15QTypedArrayDataIcE10deallocateEP10QArrayData
FNDA:299,_ZN15QTypedArrayDataIcE10deallocateEP10QArrayData
FN:257,_ZN15QTypedArrayDataI11QStringListE10sharedNullEv
FNDA:2,_ZN15QTypedArrayDataI11QStringListE10sharedNullEv
FN:257,_ZN15QTypedArrayDataItE10sharedNullEv
FNDA:58,_ZN15QTypedArrayDataItE10sharedNullEv
DA:57,2110
DA:61,2110
DA:123,97
DA:208,158
DA:208,565
DA:208,434
DA:211,128
DA:212,30
DA:220,6
DA:224,6
DA:225,6
DA:236,6
DA:239,6
DA:240,6
DA:236,0
DA:239,0
DA:240,0
DA:236,299
DA:239,299
DA:240,299
DA:257,2
DA:260,2
DA:257,58
DA:260,58
end_of_record
SF:/usr/include/x86_64-linux-gnu/qt5/QtCore/qchar.h
FN:86,_ZN5QCharC2Ei
FNDA:165,_ZN5QCharC2Ei
DA:86,165
end_of_record
TN:
SF:/home/user/Desktop/pobedi-me-ako-znas/application/podrunda.h
end_of_record
SF:/usr/include/x86_64-linux-gnu/qt5/QtCore/qbasicatomic.h
FN:103,_ZNK19QBasicAtomicIntegerIiE4loadEv
FNDA:0,_ZNK19QBasicAtomicIntegerIiE4loadEv
FN:114,_ZN19QBasicAtomicIntegerIiE3refEv
FNDA:0,_ZN19QBasicAtomicIntegerIiE3refEv
FN:115,_ZN19QBasicAtomicIntegerIiE5derefEv
FNDA:0,_ZN19QBasicAtomicIntegerIiE5derefEv
FN:221,_ZN19QBasicAtomicIntegerIiEC2Ei
FNDA:0,_ZN19QBasicAtomicIntegerIiEC2Ei
DA:103,0
DA:114,0
DA:115,0
DA:221,0
end_of_record
SF:/usr/include/x86_64-linux-gnu/qt5/QtCore/qobjectdefs_impl.h
FN:88,_ZN9QtPrivate16ApplyReturnValueIvEC2EPv
FNDA:0,_ZN9QtPrivate16ApplyReturnValueIvEC2EPv
FN:151,_ZN9QtPrivate11FunctorCallINS_11IndexesListIJEEENS_4ListIJEEEvM10PodrundauiFvvEE4callES7_PS5_PPv
FNDA:0,_ZN9QtPrivate11FunctorCallINS_11IndexesListIJEEENS_4ListIJEEEvM10PodrundauiFvvEE4callES7_PS5_PPv
FN:184,_ZN9QtPrivate15FunctionPointerIM10PodrundauiFvvEE4callINS_4ListIJEEEvEEvS3_PS1_PPv
FNDA:0,_ZN9QtPrivate15FunctionPointerIM10PodrundauiFvvEE4callINS_4ListIJEEEvEEvS3_PS1_PPv
FN:387,_ZN9QtPrivate15QSlotObjectBaseC2EPFviPS0_P7QObjectPPvPbE
FNDA:0,_ZN9QtPrivate15QSlotObjectBaseC2EPFviPS0_P7QObjectPPvPbE
FN:396,_ZN9QtPrivate15QSlotObjectBaseD2Ev
FNDA:0,_ZN9QtPrivate15QSlotObjectBaseD2Ev
FN:407,_ZN9QtPrivate11QSlotObjectIM10PodrundauiFvvENS_4ListIJEEEvE4implEiPNS_15QSlotObjectBaseEP7QObjectPPvPb
FNDA:0,_ZN9QtPrivate11QSlotObjectIM10PodrundauiFvvENS_4ListIJEEEvE4implEiPNS_15QSlotObjectBaseEP7QObjectPPvPb
FN:423,_ZN9QtPrivate11QSlotObjectIM10PodrundauiFvvENS_4ListIJEEEvEC2ES3_
FNDA:0,_ZN9QtPrivate11QSlotObjectIM10PodrundauiFvvENS_4ListIJEEEvEC2ES3_
DA:88,0
DA:151,0
DA:152,0
DA:153,0
DA:184,0
DA:185,0
DA:186,0
DA:387,0
DA:396,0
DA:407,0
DA:409,0
DA:410,0
DA:411,0
DA:412,0
DA:413,0
DA:414,0
DA:415,0
DA:416,0
DA:417,0
DA:418,0
DA:419,0
DA:421,0
DA:423,0
end_of_record
SF:/usr/include/c++/9/bits/stl_pair.h
end_of_record
SF:/usr/include/c++/9/bits/atomic_base.h
FN:99,_ZStanSt12memory_orderSt23__memory_order_modifier
FNDA:0,_ZStanSt12memory_orderSt23__memory_order_modifier
FN:279,_ZNSt13__atomic_baseIiEC2Ei
FNDA:0,_ZNSt13__atomic_baseIiEC2Ei
FN:318,_ZNSt13__atomic_baseIiEppEv
FNDA:0,_ZNSt13__atomic_baseIiEppEv
FN:326,_ZNSt13__atomic_baseIiEmmEv
FNDA:0,_ZNSt13__atomic_baseIiEmmEv
DA:99,0
DA:101,0
DA:279,0
DA:318,0
DA:319,0
DA:326,0
DA:327,0
DA:415,0
DA:419,0
end_of_record
SF:/usr/include/x86_64-linux-gnu/qt5/QtCore/qobject_impl.h
FN:73,_ZN9QtPrivate15ConnectionTypesINS_4ListIJEEELb1EE5typesEv
FNDA:0,_ZN9QtPrivate15ConnectionTypesINS_4ListIJEEELb1EE5typesEv
FN:75,_ZN9QtPrivate15ConnectionTypesINS_4ListIJbEEELb1EE5typesEv
FNDA:0,_ZN9QtPrivate15ConnectionTypesINS_4ListIJbEEELb1EE5typesEv
DA:73,0
DA:75,0
end_of_record
SF:/usr/include/x86_64-linux-gnu/qt5/QtCore/qlogging.h
FN:68,_ZN18QMessageLogContextC2EPKciS1_S1_
FNDA:0,_ZN18QMessageLogContextC2EPKciS1_S1_
FN:91,_ZN14QMessageLoggerC2EPKciS1_
FNDA:0,_ZN14QMessageLoggerC2EPKciS1_
DA:68,0
DA:69,0
DA:91,0
DA:92,0
end_of_record
SF:/usr/include/x86_64-linux-gnu/qt5/QtCore/qobject.h
FN:228,_ZN7QObject7connectIM10PodrundauiFvvES3_EEN11QMetaObject10ConnectionEPKN9QtPrivate15FunctionPointerIT_E6ObjectES8_PKNS7_IT0_E6ObjectESD_N2Qt14ConnectionTypeE
FNDA:0,_ZN7QObject7connectIM10PodrundauiFvvES3_EEN11QMetaObject10ConnectionEPKN9QtPrivate15FunctionPointerIT_E6ObjectES8_PKNS7_IT0_E6ObjectESD_N2Qt14ConnectionTypeE
FN:228,_ZN7QObject7connectIM15QAbstractButtonFvbEM10PodrundauiFvvEEEN11QMetaObject10ConnectionEPKN9QtPrivate15FunctionPointerIT_E6ObjectESB_PKNSA_IT0_E6ObjectESG_N2Qt14ConnectionTypeE
FNDA:0,_ZN7QObject7connectIM15QAbstractButtonFvbEM10PodrundauiFvvEEEN11QMetaObject10ConnectionEPKN9QtPrivate15FunctionPointerIT_E6ObjectESB_PKNSA_IT0_E6ObjectESG_N2Qt14ConnectionTypeE
FN:353,_ZN7QObject10disconnectIM10PodrundauiFvvES3_EEbPKN9QtPrivate15FunctionPointerIT_E6ObjectES6_PKNS5_IT0_E6ObjectESB_
FNDA:0,_ZN7QObject10disconnectIM10PodrundauiFvvES3_EEbPKN9QtPrivate15FunctionPointerIT_E6ObjectES6_PKNS5_IT0_E6ObjectESB_
DA:228,0
DA:246,0
DA:247,0
DA:248,0
DA:252,0
DA:254,0
DA:228,0
DA:246,0
DA:247,0
DA:248,0
DA:252,0
DA:254,0
DA:353,0
DA:366,0
DA:367,0
end_of_record
SF:/usr/include/x86_64-linux-gnu/qt5/QtCore/qrefcount.h
FN:54,_ZN9QtPrivate8RefCount3refEv
FNDA:0,_ZN9QtPrivate8RefCount3refEv
FN:65,_ZN9QtPrivate8RefCount5derefEv
FNDA:0,_ZN9QtPrivate8RefCount5derefEv
FN:99,_ZNK9QtPrivate8RefCount8isSharedEv
FNDA:0,_ZNK9QtPrivate8RefCount8isSharedEv
DA:54,0
DA:55,0
DA:57,0
DA:58,0
DA:60,0
DA:61,0
DA:62,0
DA:65,0
DA:66,0
DA:68,0
DA:69,0
DA:71,0
DA:72,0
DA:73,0
DA:99,0
DA:101,0
DA:102,0
end_of_record
SF:/usr/include/x86_64-linux-gnu/qt5/QtCore/qatomic.h
FN:60,_ZN14QAtomicIntegerIiEC2Ei
FNDA:0,_ZN14QAtomicIntegerIiEC2Ei
FN:162,_ZN10QAtomicIntC2Ei
FNDA:0,_ZN10QAtomicIntC2Ei
DA:60,0
DA:162,0
end_of_record
SF:/usr/include/x86_64-linux-gnu/qt5/QtCore/qshareddata.h
FN:233,_ZN28QExplicitlySharedDataPointerI15QPlatformPixmapE4swapERS1_
FNDA:0,_ZN28QExplicitlySharedDataPointerI15QPlatformPixmapE4swapERS1_
FN:304,_Z5qSwapI15QPlatformPixmapEvR28QExplicitlySharedDataPointerIT_ES4_
FNDA:0,_Z5qSwapI15QPlatformPixmapEvR28QExplicitlySharedDataPointerIT_ES4_
DA:233,0
DA:234,0
DA:304,0
DA:305,0
end_of_record
SF:/usr/include/x86_64-linux-gnu/qt5/QtCore/qlist.h
FN:100,_ZN9QListData7disposeEv
FNDA:0,_ZN9QListData7disposeEv
FN:113,_ZNK9QListData4sizeEv
FNDA:0,_ZNK9QListData4sizeEv
FN:115,_ZNK9QListData2atEi
FNDA:0,_ZNK9QListData2atEi
FN:116,_ZNK9QListData5beginEv
FNDA:0,_ZNK9QListData5beginEv
FN:117,_ZNK9QListData3endEv
FNDA:0,_ZNK9QListData3endEv
FN:142,_ZN5QListI7QStringE4Node1tEv
FNDA:0,_ZN5QListI7QStringE4Node1tEv
FN:172,_ZN5QListI7QStringE6detachEv
FNDA:0,_ZN5QListI7QStringE6detachEv
FN:235,_ZN5QListI7QStringE8iteratorC2EPNS1_4NodeE
FNDA:0,_ZN5QListI7QStringE8iteratorC2EPNS1_4NodeE
FN:241,_ZNK5QListI7QStringE8iteratordeEv
FNDA:0,_ZNK5QListI7QStringE8iteratordeEv
FN:245,_ZNK5QListI7QStringE8iteratorneERKS2_
FNDA:0,_ZNK5QListI7QStringE8iteratorneERKS2_
FN:264,_ZN5QListI7QStringE8iteratorppEv
FNDA:0,_ZN5QListI7QStringE8iteratorppEv
FN:324,_ZN5QListI7QStringE5beginEv
FNDA:0,_ZN5QListI7QStringE5beginEv
FN:328,_ZN5QListI7QStringE3endEv
FNDA:0,_ZN5QListI7QStringE3endEv
FN:459,_ZN5QListI7QStringE9node_copyEPNS1_4NodeES3_S3_
FNDA:0,_ZN5QListI7QStringE9node_copyEPNS1_4NodeES3_S3_
FN:494,_ZN5QListI7QStringE13node_destructEPNS1_4NodeES3_
FNDA:0,_ZN5QListI7QStringE13node_destructEPNS1_4NodeES3_
FN:741,_ZNK5QListI7QStringE5valueEi
FNDA:0,_ZNK5QListI7QStringE5valueEi
FN:786,_ZN5QListI7QStringE13detach_helperEi
FNDA:0,_ZN5QListI7QStringE13detach_helperEi
FN:803,_ZN5QListI7QStringE13detach_helperEv
FNDA:0,_ZN5QListI7QStringE13detach_helperEv
FN:827,_ZN5QListI7QStringED2Ev
FNDA:0,_ZN5QListI7QStringED2Ev
FN:866,_ZN5QListI7QStringE7deallocEPN9QListData4DataE
FNDA:0,_ZN5QListI7QStringE7deallocEPN9QListData4DataE
DA:100,0
DA:113,0
DA:115,0
DA:116,0
DA:117,0
DA:142,0
DA:144,0
DA:172,0
DA:235,0
DA:241,0
DA:245,0
DA:264,0
DA:324,0
DA:328,0
DA:459,0
DA:461,0
DA:477,0
DA:478,0
DA:479,0
DA:480,0
DA:491,0
DA:494,0
DA:499,0
DA:500,0
DA:741,0
DA:743,0
DA:744,0
DA:746,0
DA:786,0
DA:788,0
DA:789,0
DA:791,0
DA:792,0
DA:793,0
DA:794,0
DA:795,0
DA:798,0
DA:799,0
DA:800,0
DA:803,0
DA:805,0
DA:806,0
DA:827,0
DA:829,0
DA:830,0
DA:831,0
DA:866,0
DA:868,0
DA:869,0
DA:870,0
DA:871,0
end_of_record
SF:/usr/include/x86_64-linux-gnu/qt5/QtCore/qflags.h
FN:120,_ZN6QFlagsIN2Qt19ImageConversionFlagEEC2ES1_
FNDA:0,_ZN6QFlagsIN2Qt19ImageConversionFlagEEC2ES1_
FN:120,_ZN6QFlagsIN2Qt13AlignmentFlagEEC2ES1_
FNDA:0,_ZN6QFlagsIN2Qt13AlignmentFlagEEC2ES1_
FN:121,_ZN6QFlagsIN2Qt10WindowTypeEEC2EMNS2_7PrivateEi
FNDA:0,_ZN6QFlagsIN2Qt10WindowTypeEEC2EMNS2_7PrivateEi
DA:120,0
DA:120,0
DA:121,0
end_of_record
SF:/usr/include/c++/9/new
FN:173,_ZnwmPv
FNDA:0,_ZnwmPv
DA:173,0
DA:174,0
end_of_record
SF:/usr/include/x86_64-linux-gnu/qt5/QtWidgets/qwidget.h
FN:787,_ZN7QWidget14setMinimumSizeERK5QSize
FNDA:0,_ZN7QWidget14setMinimumSizeERK5QSize
FN:790,_ZN7QWidget14setMaximumSizeERK5QSize
FNDA:0,_ZN7QWidget14setMaximumSizeERK5QSize
FN:799,_ZNK7QWidget4fontEv
FNDA:0,_ZNK7QWidget4fontEv
FN:838,_ZN7QWidget6resizeEii
FNDA:0,_ZN7QWidget6resizeEii
FN:850,_ZNK7QWidget4sizeEv
FNDA:0,_ZNK7QWidget4sizeEv
DA:787,0
DA:788,0
DA:790,0
DA:791,0
DA:799,0
DA:800,0
DA:838,0
DA:839,0
DA:850,0
DA:851,0
end_of_record
SF:/usr/include/c++/9/atomic
FN:759,_ZNSt6atomicIiEC2Ei
FNDA:0,_ZNSt6atomicIiEC2Ei
DA:759,0
end_of_record
SF:/home/user/Desktop/pobedi-me-ako-znas/application/podrundaui.h
end_of_record
SF:/usr/include/x86_64-linux-gnu/qt5/QtCore/qsize.h
FN:119,_ZN5QSizeC2Eii
FNDA:0,_ZN5QSizeC2Eii
FN:130,_ZNK5QSize5widthEv
FNDA:0,_ZNK5QSize5widthEv
FN:133,_ZNK5QSize6heightEv
FNDA:0,_ZNK5QSize6heightEv
DA:119,0
DA:130,0
DA:131,0
DA:133,0
DA:134,0
end_of_record
SF:/home/user/Desktop/pobedi-me-ako-znas/build/application/application_autogen/include/ui_podrundaui.h
FN:31,_ZN13Ui_Podrundaui7setupUiEP7QWidget
FNDA:0,_ZN13Ui_Podrundaui7setupUiEP7QWidget
FN:70,_ZN13Ui_Podrundaui13retranslateUiEP7QWidget
FNDA:0,_ZN13Ui_Podrundaui13retranslateUiEP7QWidget
DA:31,0
DA:33,0
DA:34,0
DA:35,0
DA:36,0
DA:37,0
DA:38,0
DA:39,0
DA:40,0
DA:41,0
DA:42,0
DA:43,0
DA:44,0
DA:45,0
DA:46,0
DA:47,0
DA:48,0
DA:49,0
DA:50,0
DA:51,0
DA:52,0
DA:53,0
DA:54,0
DA:55,0
DA:56,0
DA:57,0
DA:58,0
DA:59,0
DA:60,0
DA:61,0
DA:62,0
DA:63,0
DA:65,0
DA:67,0
DA:68,0
DA:70,0
DA:72,0
DA:73,0
DA:74,0
DA:75,0
DA:76,0
DA:77,0
DA:78,0
end_of_record
SF:/usr/include/x86_64-linux-gnu/qt5/QtCore/qiodevice.h
FN:136,_ZN9QIODevice5writeERK10QByteArray
FNDA:0,_ZN9QIODevice5writeERK10QByteArray
DA:136,0
DA:137,0
end_of_record
SF:/usr/include/c++/9/bits/move.h
FN:99,_ZSt4moveIRP15QPlatformPixmapEONSt16remove_referenceIT_E4typeEOS4_
FNDA:0,_ZSt4moveIRP15QPlatformPixmapEONSt16remove_referenceIT_E4typeEOS4_
FN:182,_ZSt4swapIP15QPlatformPixmapENSt9enable_ifIXsrSt6__and_IJSt6__not_ISt15__is_tuple_likeIT_EESt21is_move_constructibleIS6_ESt18is_move_assignableIS6_EEE5valueEvE4typeERS6_SG_
FNDA:0,_ZSt4swapIP15QPlatformPixmapENSt9enable_ifIXsrSt6__and_IJSt6__not_ISt15__is_tuple_likeIT_EESt21is_move_constructibleIS6_ESt18is_move_assignableIS6_EEE5valueEvE4typeERS6_SG_
DA:99,0
DA:100,0
DA:182,0
DA:193,0
DA:194,0
DA:195,0
DA:196,0
end_of_record
SF:/usr/include/x86_64-linux-gnu/qt5/QtCore/qdebug.h
FN:125,_ZN6QDebug10maybeSpaceEv
FNDA:0,_ZN6QDebug10maybeSpaceEv
FN:153,_ZN6QDebuglsEPKc
FNDA:0,_ZN6QDebuglsEPKc
FN:155,_ZN6QDebuglsERK7QString
FNDA:0,_ZN6QDebuglsERK7QString
DA:125,0
DA:153,0
DA:155,0
end_of_record
SF:/usr/include/x86_64-linux-gnu/qt5/QtCore/qchar.h
FN:86,_ZN5QCharC2Ei
FNDA:0,_ZN5QCharC2Ei
DA:86,0
end_of_record
SF:/usr/include/x86_64-linux-gnu/qt5/QtCore/qrect.h
FN:184,_ZN5QRectC2Eiiii
FNDA:0,_ZN5QRectC2Eiiii
FN:265,_ZNK5QRect5widthEv
FNDA:0,_ZNK5QRect5widthEv
FN:268,_ZNK5QRect6heightEv
FNDA:0,_ZNK5QRect6heightEv
FN:271,_ZNK5QRect4sizeEv
FNDA:0,_ZNK5QRect4sizeEv
DA:184,0
DA:185,0
DA:265,0
DA:266,0
DA:268,0
DA:269,0
DA:271,0
DA:272,0
end_of_record
SF:/usr/include/x86_64-linux-gnu/qt5/QtCore/qbytearray.h
FN:76,_Z8qstrnlenPKcj
FNDA:0,_Z8qstrnlenPKcj
FN:476,_ZN10QByteArrayD2Ev
FNDA:0,_ZN10QByteArrayD2Ev
FN:477,_ZNK10QByteArray4sizeEv
FNDA:0,_ZNK10QByteArray4sizeEv
FN:497,_ZNK10QByteArray4dataEv
FNDA:0,_ZNK10QByteArray4dataEv
FN:499,_ZNK10QByteArray9constDataEv
FNDA:0,_ZNK10QByteArray9constDataEv
FN:505,_ZN10QByteArrayC2ERKS_
FNDA:0,_ZN10QByteArrayC2ERKS_
FN:590,_ZN10QByteArraypLEPKc
FNDA:0,_ZN10QByteArraypLEPKc
FN:592,_ZN10QByteArraypLERKS_
FNDA:0,_ZN10QByteArraypLERKS_
FN:659,_ZplRK10QByteArrayPKc
FNDA:0,_ZplRK10QByteArrayPKc
FN:663,_ZplPKcRK10QByteArray
FNDA:0,_ZplPKcRK10QByteArray
DA:76,0
DA:78,0
DA:79,0
DA:80,0
DA:81,0
DA:83,0
DA:476,0
DA:477,0
DA:478,0
DA:497,0
DA:498,0
DA:499,0
DA:500,0
DA:505,0
DA:506,0
DA:590,0
DA:591,0
DA:592,0
DA:593,0
DA:659,0
DA:660,0
DA:663,0
DA:664,0
end_of_record
SF:/usr/include/x86_64-linux-gnu/qt5/QtCore/qstring.h
FN:234,_ZN7QStringC2EOS_
FNDA:0,_ZN7QStringC2EOS_
FN:483,_ZN7QStringpLERKS_
FNDA:0,_ZN7QStringpLERKS_
FN:549,_ZNKR7QString6toUtf8Ev
FNDA:0,_ZNKR7QString6toUtf8Ev
FN:570,_ZN7QString8fromUtf8EPKci
FNDA:0,_ZN7QString8fromUtf8EPKci
FN:580,_ZN7QString8fromUtf8ERK10QByteArray
FNDA:0,_ZN7QString8fromUtf8ERK10QByteArray
FN:699,_ZN7QStringC2EPKc
FNDA:0,_ZN7QStringC2EPKc
FN:702,_ZN7QStringC2ERK10QByteArray
FNDA:0,_ZN7QStringC2ERK10QByteArray
FN:933,_ZNK7QString6lengthEv
FNDA:0,_ZNK7QString6lengthEv
FN:941,_ZNK7QString7isEmptyEv
FNDA:0,_ZNK7QString7isEmptyEv
FN:949,_ZNK7QString9constDataEv
FNDA:0,_ZNK7QString9constDataEv
FN:957,_ZN7QStringC2ERKS_
FNDA:0,_ZN7QStringC2ERKS_
FN:1134,_ZN7QStringC2Ev
FNDA:0,_ZN7QStringC2Ev
FN:1135,_ZN7QStringD2Ev
FNDA:0,_ZN7QStringD2Ev
FN:1356,_ZplRK7QStringPKc
FNDA:0,_ZplRK7QStringPKc
FN:1358,_ZplPKcRK7QString
FNDA:0,_ZplPKcRK7QString
DA:234,0
DA:483,0
DA:549,0
DA:550,0
DA:570,0
DA:572,0
DA:580,0
DA:581,0
DA:699,0
DA:700,0
DA:701,0
DA:702,0
DA:703,0
DA:704,0
DA:933,0
DA:934,0
DA:941,0
DA:942,0
DA:949,0
DA:950,0
DA:957,0
DA:958,0
DA:1134,0
DA:1135,0
DA:1356,0
DA:1357,0
DA:1358,0
DA:1359,0
end_of_record
SF:/usr/include/x86_64-linux-gnu/qt5/QtCore/qarraydata.h
FN:57,_ZN10QArrayData4dataEv
FNDA:0,_ZN10QArrayData4dataEv
FN:123,_ZN10QArrayData10sharedNullEv
FNDA:0,_ZN10QArrayData10sharedNullEv
FN:208,_ZN15QTypedArrayDataItE4dataEv
FNDA:0,_ZN15QTypedArrayDataItE4dataEv
FN:208,_ZN15QTypedArrayDataIcE4dataEv
FNDA:0,_ZN15QTypedArrayDataIcE4dataEv
FN:236,_ZN15QTypedArrayDataItE10deallocateEP10QArrayData
FNDA:0,_ZN15QTypedArrayDataItE10deallocateEP10QArrayData
FN:236,_ZN15QTypedArrayDataIcE10deallocateEP10QArrayData
FNDA:0,_ZN15QTypedArrayDataIcE10deallocateEP10QArrayData
FN:257,_ZN15QTypedArrayDataItE10sharedNullEv
FNDA:0,_ZN15QTypedArrayDataItE10sharedNullEv
DA:57,0
DA:61,0
DA:123,0
DA:208,0
DA:208,0
DA:236,0
DA:239,0
DA:240,0
DA:236,0
DA:239,0
DA:240,0
DA:257,0
DA:260,0
end_of_record
SF:/usr/include/x86_64-linux-gnu/qt5/QtCore/qstringlist.h
FN:69,_ZN19QListSpecialMethodsI7QStringED2Ev
FNDA:0,_ZN19QListSpecialMethodsI7QStringED2Ev
DA:69,0
end_of_record
SF:/usr/include/x86_64-linux-gnu/qt5/QtCore/qglobal.h
FN:581,_Z4qAbsIdET_RKS0_
FNDA:0,_Z4qAbsIdET_RKS0_
FN:911,_Z5qSwapIP15QPlatformPixmapEvRT_S3_
FNDA:0,_Z5qSwapIP15QPlatformPixmapEvRT_S3_
DA:581,0
DA:911,0
DA:915,0
DA:916,0
end_of_record
SF:/usr/include/x86_64-linux-gnu/qt5/QtGui/qpixmap.h
FN:77,_ZN7QPixmapaSEOS_
FNDA:0,_ZN7QPixmapaSEOS_
DA:77,0
DA:78,0
end_of_record
SF:/home/user/Desktop/pobedi-me-ako-znas/application/podrundaui.cpp
FN:6,_ZN10PodrundauiC2EP7QWidget
FNDA:0,_ZN10PodrundauiC2EP7QWidget
FN:27,_ZN10PodrundauiC2EP7QWidgetP10QTcpSocket7QStringS4_ii
FNDA:0,_ZN10PodrundauiC2EP7QWidgetP10QTcpSocket7QStringS4_ii
FN:55,_ZN10Podrundaui9startGameEv
FNDA:0,_ZN10Podrundaui9startGameEv
FN:67,_ZN10Podrundaui7getTimeEv
FNDA:0,_ZN10Podrundaui7getTimeEv
FN:72,_ZN10Podrundaui10getPlayer1Ev
FNDA:0,_ZN10Podrundaui10getPlayer1Ev
FN:77,_ZN10Podrundaui10getPlayer2Ev
FNDA:0,_ZN10Podrundaui10getPlayer2Ev
FN:82,_ZN10Podrundaui10setPlayer1E7QString
FNDA:0,_ZN10Podrundaui10setPlayer1E7QString
FN:87,_ZN10Podrundaui10setPlayer2E7QString
FNDA:0,_ZN10Podrundaui10setPlayer2E7QString
FN:92,_ZN10Podrundaui16getPlayer1PointsEv
FNDA:0,_ZN10Podrundaui16getPlayer1PointsEv
FN:97,_ZN10Podrundaui16getPlayer2PointsEv
FNDA:0,_ZN10Podrundaui16getPlayer2PointsEv
FN:102,_ZN10Podrundaui16setPlayer1PointsEi
FNDA:0,_ZN10Podrundaui16setPlayer1PointsEi
FN:107,_ZN10Podrundaui16setPlayer2PointsEi
FNDA:0,_ZN10Podrundaui16setPlayer2PointsEi
FN:112,_ZN10Podrundaui9resetGameEv
FNDA:0,_ZN10Podrundaui9resetGameEv
FN:125,_ZN10PodrundauiD2Ev
FNDA:0,_ZN10PodrundauiD2Ev
FN:125,_ZN10PodrundauiD0Ev
FNDA:0,_ZN10PodrundauiD0Ev
FN:132,_ZN10Podrundaui5getUiEv
FNDA:0,_ZN10Podrundaui5getUiEv
FN:137,_ZN10Podrundaui13setBackgroundEv
FNDA:0,_ZN10Podrundaui13setBackgroundEv
FN:147,_ZN10Podrundaui13on_pbOdgovoriEv
FNDA:0,_ZN10Podrundaui13on_pbOdgovoriEv
FN:153,_ZN10Podrundaui24on_pbOdgovoriMultiplayerEv
FNDA:0,_ZN10Podrundaui24on_pbOdgovoriMultiplayerEv
FN:168,_ZN10Podrundaui11getQuestionEv
FNDA:0,_ZN10Podrundaui11getQuestionEv
FN:173,_ZN10Podrundaui15displayQuestionEv
FNDA:0,_ZN10Podrundaui15displayQuestionEv
FN:184,_ZN10Podrundaui13displayAnswerEv
FNDA:0,_ZN10Podrundaui13displayAnswerEv
FN:211,_ZN10Podrundaui9disableUIEv
FNDA:0,_ZN10Podrundaui9disableUIEv
FN:217,_ZN10Podrundaui8enableUIEv
FNDA:0,_ZN10Podrundaui8enableUIEv
FN:224,_ZN10Podrundaui12notifyServerEP10QTcpSocket7QString
FNDA:0,_ZN10Podrundaui12notifyServerEP10QTcpSocket7QString
FN:231,_ZN10Podrundaui8getGuessEv
FNDA:0,_ZN10Podrundaui8getGuessEv
FN:236,_ZN10Podrundaui15isNumberGuessedEv
FNDA:0,_ZN10Podrundaui15isNumberGuessedEv
FN:246,_ZN10Podrundaui10updateTimeEv
FNDA:0,_ZN10Podrundaui10updateTimeEv
FN:260,_ZN10Podrundaui10on_timesUpEv
FNDA:0,_ZN10Podrundaui10on_timesUpEv
FN:274,_ZN10Podrundaui12on_gameEndedEv
FNDA:0,_ZN10Podrundaui12on_gameEndedEv
FN:299,_ZN10Podrundaui17adjustResultLabelEv
FNDA:0,_ZN10Podrundaui17adjustResultLabelEv
FN:306,_ZN10Podrundaui11onReadyReadEv
FNDA:0,_ZN10Podrundaui11onReadyReadEv
FN:322,_ZN10Podrundaui20processServerMessageE7QString
FNDA:0,_ZN10Podrundaui20processServerMessageE7QString
DA:6,0
DA:8,0
DA:9,0
DA:11,0
DA:13,0
DA:15,0
DA:16,0
DA:17,0
DA:19,0
DA:20,0
DA:21,0
DA:23,0
DA:24,0
DA:25,0
DA:27,0
DA:28,0
DA:29,0
DA:32,0
DA:33,0
DA:34,0
DA:35,0
DA:37,0
DA:38,0
DA:39,0
DA:40,0
DA:41,0
DA:42,0
DA:44,0
DA:45,0
DA:46,0
DA:48,0
DA:50,0
DA:52,0
DA:53,0
DA:55,0
DA:57,0
DA:58,0
DA:60,0
DA:62,0
DA:64,0
DA:67,0
DA:69,0
DA:72,0
DA:74,0
DA:77,0
DA:79,0
DA:82,0
DA:84,0
DA:85,0
DA:87,0
DA:89,0
DA:90,0
DA:92,0
DA:94,0
DA:97,0
DA:99,0
DA:102,0
DA:104,0
DA:105,0
DA:107,0
DA:109,0
DA:110,0
DA:112,0
DA:114,0
DA:115,0
DA:116,0
DA:117,0
DA:119,0
DA:121,0
DA:122,0
DA:123,0
DA:125,0
DA:130,0
DA:125,0
DA:127,0
DA:128,0
DA:129,0
DA:130,0
DA:132,0
DA:134,0
DA:137,0
DA:139,0
DA:140,0
DA:141,0
DA:142,0
DA:143,0
DA:144,0
DA:145,0
DA:147,0
DA:149,0
DA:150,0
DA:151,0
DA:153,0
DA:155,0
DA:156,0
DA:157,0
DA:159,0
DA:160,0
DA:162,0
DA:164,0
DA:165,0
DA:166,0
DA:168,0
DA:170,0
DA:171,0
DA:173,0
DA:175,0
DA:176,0
DA:177,0
DA:178,0
DA:179,0
DA:181,0
DA:182,0
DA:184,0
DA:186,0
DA:188,0
DA:189,0
DA:190,0
DA:191,0
DA:195,0
DA:196,0
DA:197,0
DA:198,0
DA:199,0
DA:200,0
DA:201,0
DA:204,0
DA:205,0
DA:207,0
DA:208,0
DA:209,0
DA:211,0
DA:213,0
DA:214,0
DA:215,0
DA:217,0
DA:219,0
DA:220,0
DA:221,0
DA:222,0
DA:224,0
DA:226,0
DA:227,0
DA:228,0
DA:229,0
DA:231,0
DA:233,0
DA:234,0
DA:236,0
DA:238,0
DA:239,0
DA:240,0
DA:241,0
DA:243,0
DA:246,0
DA:248,0
DA:250,0
DA:251,0
DA:254,0
DA:256,0
DA:258,0
DA:260,0
DA:262,0
DA:264,0
DA:265,0
DA:267,0
DA:268,0
DA:271,0
DA:272,0
DA:274,0
DA:276,0
DA:278,0
DA:279,0
DA:280,0
DA:281,0
DA:283,0
DA:284,0
DA:285,0
DA:286,0
DA:287,0
DA:288,0
DA:289,0
DA:291,0
DA:292,0
DA:294,0
DA:295,0
DA:296,0
DA:297,0
DA:299,0
DA:301,0
DA:302,0
DA:303,0
DA:304,0
DA:306,0
DA:308,0
DA:309,0
DA:311,0
DA:313,0
DA:315,0
DA:317,0
DA:320,0
DA:322,0
DA:324,0
DA:326,0
DA:327,0
DA:328,0
DA:329,0
DA:330,0
DA:332,0
DA:334,0
DA:335,0
DA:337,0
DA:338,0
DA:339,0
DA:340,0
DA:342,0
DA:344,0
DA:346,0
DA:347,0
DA:348,0
DA:349,0
DA:351,0
DA:353,0
DA:355,0
DA:356,0
DA:357,0
DA:358,0
DA:360,0
DA:362,0
DA:364,0
DA:365,0
DA:366,0
DA:367,0
DA:369,0
DA:371,0
DA:373,0
DA:374,0
DA:375,0
DA:376,0
DA:378,0
DA:380,0
DA:382,0
DA:383,0
DA:384,0
DA:385,0
DA:389,0
DA:390,0
DA:391,0
DA:392,0
DA:395,0
DA:396,0
DA:397,0
DA:399,0
DA:401,0
DA:402,0
DA:404,0
DA:406,0
DA:407,0
DA:409,0
DA:411,0
DA:412,0
DA:413,0
DA:414,0
DA:416,0
DA:418,0
DA:420,0
DA:421,0
DA:422,0
DA:423,0
DA:425,0
DA:426,0
DA:428,0
end_of_record
SF:/usr/include/x86_64-linux-gnu/qt5/QtGui/qpalette.h
FN:200,_ZN8QPalette8setBrushENS_9ColorRoleERK6QBrush
FNDA:0,_ZN8QPalette8setBrushENS_9ColorRoleERK6QBrush
DA:200,0
DA:201,0
end_of_record
SF:/usr/include/x86_64-linux-gnu/qt5/QtCore/qatomic_cxx11.h
FN:225,_ZN10QAtomicOpsIiE4loadIiEET_RKSt6atomicIS2_E
FNDA:0,_ZN10QAtomicOpsIiE4loadIiEET_RKSt6atomicIS2_E
FN:263,_ZN10QAtomicOpsIiE3refIiEEbRSt6atomicIT_E
FNDA:0,_ZN10QAtomicOpsIiE3refIiEEbRSt6atomicIT_E
FN:269,_ZN10QAtomicOpsIiE5derefIiEEbRSt6atomicIT_E
FNDA:0,_ZN10QAtomicOpsIiE5derefIiEEbRSt6atomicIT_E
DA:225,0
DA:227,0
DA:263,0
DA:265,0
DA:269,0
DA:271,0
end_of_record
TN:
SF:/usr/include/x86_64-linux-gnu/qt5/QtCore/qbasicatomic.h
FN:103,_ZNK19QBasicAtomicIntegerIiE4loadEv
FNDA:0,_ZNK19QBasicAtomicIntegerIiE4loadEv
FN:114,_ZN19QBasicAtomicIntegerIiE3refEv
FNDA:0,_ZN19QBasicAtomicIntegerIiE3refEv
FN:115,_ZN19QBasicAtomicIntegerIiE5derefEv
FNDA:0,_ZN19QBasicAtomicIntegerIiE5derefEv
FN:221,_ZN19QBasicAtomicIntegerIiEC2Ei
FNDA:0,_ZN19QBasicAtomicIntegerIiEC2Ei
DA:103,0
DA:114,0
DA:115,0
DA:221,0
end_of_record
SF:/usr/include/x86_64-linux-gnu/qt5/QtCore/qobjectdefs_impl.h
FN:88,_ZN9QtPrivate16ApplyReturnValueIvEC2EPv
FNDA:0,_ZN9QtPrivate16ApplyReturnValueIvEC2EPv
FN:151,_ZN9QtPrivate11FunctorCallINS_11IndexesListIJLi0EEEENS_4ListIJiEEEvM8MemorijaFviEE4callES7_PS5_PPv
FNDA:40,_ZN9QtPrivate11FunctorCallINS_11IndexesListIJLi0EEEENS_4ListIJiEEEvM8MemorijaFviEE4callES7_PS5_PPv
FN:184,_ZN9QtPrivate15FunctionPointerIM8MemorijaFviEE4callINS_4ListIJiEEEvEEvS3_PS1_PPv
FNDA:40,_ZN9QtPrivate15FunctionPointerIM8MemorijaFviEE4callINS_4ListIJiEEEvEEvS3_PS1_PPv
FN:387,_ZN9QtPrivate15QSlotObjectBaseC2EPFviPS0_P7QObjectPPvPbE
FNDA:0,_ZN9QtPrivate15QSlotObjectBaseC2EPFviPS0_P7QObjectPPvPbE
FN:396,_ZN9QtPrivate15QSlotObjectBaseD2Ev
FNDA:0,_ZN9QtPrivate15QSlotObjectBaseD2Ev
FN:407,_ZN9QtPrivate11QSlotObjectIM8MemorijaFviENS_4ListIJiEEEvE4implEiPNS_15QSlotObjectBaseEP7QObjectPPvPb
FNDA:120,_ZN9QtPrivate11QSlotObjectIM8MemorijaFviENS_4ListIJiEEEvE4implEiPNS_15QSlotObjectBaseEP7QObjectPPvPb
FN:423,_ZN9QtPrivate11QSlotObjectIM8MemorijaFviENS_4ListIJiEEEvEC2ES3_
FNDA:80,_ZN9QtPrivate11QSlotObjectIM8MemorijaFviENS_4ListIJiEEEvEC2ES3_
DA:88,0
DA:151,40
DA:152,40
DA:153,40
DA:184,40
DA:185,40
DA:186,40
DA:387,0
DA:396,0
DA:407,120
DA:409,120
DA:410,80
DA:411,80
DA:412,80
DA:413,40
DA:414,40
DA:415,40
DA:416,0
DA:417,0
DA:418,0
DA:419,120
DA:421,120
DA:423,80
end_of_record
SF:/usr/include/c++/9/bits/atomic_base.h
FN:99,_ZStanSt12memory_orderSt23__memory_order_modifier
FNDA:0,_ZStanSt12memory_orderSt23__memory_order_modifier
FN:279,_ZNSt13__atomic_baseIiEC2Ei
FNDA:0,_ZNSt13__atomic_baseIiEC2Ei
FN:318,_ZNSt13__atomic_baseIiEppEv
FNDA:0,_ZNSt13__atomic_baseIiEppEv
FN:326,_ZNSt13__atomic_baseIiEmmEv
FNDA:0,_ZNSt13__atomic_baseIiEmmEv
DA:99,0
DA:101,0
DA:279,0
DA:318,0
DA:319,0
DA:326,0
DA:327,0
DA:415,0
DA:419,0
end_of_record
SF:/usr/include/x86_64-linux-gnu/qt5/QtWidgets/qsizepolicy.h
FN:141,_ZN11QSizePolicy17setHeightForWidthEb
FNDA:2,_ZN11QSizePolicy17setHeightForWidthEb
FN:142,_ZNK11QSizePolicy17hasHeightForWidthEv
FNDA:2,_ZNK11QSizePolicy17hasHeightForWidthEv
FN:155,_ZN11QSizePolicy20setHorizontalStretchEi
FNDA:2,_ZN11QSizePolicy20setHorizontalStretchEi
FN:156,_ZN11QSizePolicy18setVerticalStretchEi
FNDA:2,_ZN11QSizePolicy18setVerticalStretchEi
DA:141,2
DA:142,2
DA:155,2
DA:156,2
end_of_record
SF:/usr/include/x86_64-linux-gnu/qt5/QtCore/qobject_impl.h
FN:75,_ZN9QtPrivate15ConnectionTypesINS_4ListIJiEEELb1EE5typesEv
FNDA:0,_ZN9QtPrivate15ConnectionTypesINS_4ListIJiEEELb1EE5typesEv
DA:75,0
end_of_record
SF:/usr/include/x86_64-linux-gnu/qt5/QtCore/qlogging.h
FN:68,_ZN18QMessageLogContextC2EPKciS1_S1_
FNDA:0,_ZN18QMessageLogContextC2EPKciS1_S1_
FN:91,_ZN14QMessageLoggerC2EPKciS1_
FNDA:0,_ZN14QMessageLoggerC2EPKciS1_
DA:68,0
DA:69,0
DA:91,0
DA:92,0
end_of_record
SF:/usr/include/x86_64-linux-gnu/qt5/QtCore/qtextstream.h
FN:230,_ZlsR11QTextStreamPFS0_S0_E
FNDA:0,_ZlsR11QTextStreamPFS0_S0_E
DA:230,0
DA:231,0
end_of_record
SF:/usr/include/x86_64-linux-gnu/qt5/QtCore/qrefcount.h
FN:54,_ZN9QtPrivate8RefCount3refEv
FNDA:0,_ZN9QtPrivate8RefCount3refEv
FN:65,_ZN9QtPrivate8RefCount5derefEv
FNDA:0,_ZN9QtPrivate8RefCount5derefEv
FN:99,_ZNK9QtPrivate8RefCount8isSharedEv
FNDA:0,_ZNK9QtPrivate8RefCount8isSharedEv
DA:54,0
DA:55,0
DA:57,0
DA:58,0
DA:60,0
DA:61,0
DA:62,0
DA:65,0
DA:66,0
DA:68,0
DA:69,0
DA:71,0
DA:72,0
DA:73,0
DA:99,0
DA:101,0
DA:102,0
end_of_record
SF:/usr/include/x86_64-linux-gnu/qt5/QtCore/qobject.h
FN:228,_ZN7QObject7connectIM10CardWidgetFviEM8MemorijaFviEEEN11QMetaObject10ConnectionEPKN9QtPrivate15FunctionPointerIT_E6ObjectESB_PKNSA_IT0_E6ObjectESG_N2Qt14ConnectionTypeE
FNDA:80,_ZN7QObject7connectIM10CardWidgetFviEM8MemorijaFviEEEN11QMetaObject10ConnectionEPKN9QtPrivate15FunctionPointerIT_E6ObjectESB_PKNSA_IT0_E6ObjectESG_N2Qt14ConnectionTypeE
DA:228,80
DA:246,80
DA:247,80
DA:248,0
DA:252,80
DA:254,80
end_of_record
SF:/usr/include/x86_64-linux-gnu/qt5/QtCore/qvector.h
FN:69,_ZN7QVectorIiEC2Ev
FNDA:21,_ZN7QVectorIiEC2Ev
FN:73,_ZN7QVectorIiED2Ev
FNDA:35,_ZN7QVectorIiED2Ev
FN:87,_ZNK7QVectorIiE4sizeEv
FNDA:164,_ZNK7QVectorIiE4sizeEv
FN:106,_ZNK7QVectorIiE10isDetachedEv
FNDA:460,_ZNK7QVectorIiE10isDetachedEv
FN:127,_ZN7QVectorIiE4dataEv
FNDA:206,_ZN7QVectorIiE4dataEv
FN:205,_ZN7QVectorIiE5beginEv
FNDA:20,_ZN7QVectorIiE5beginEv
FN:209,_ZN7QVectorIiE3endEv
FNDA:20,_ZN7QVectorIiE3endEv
FN:324,_ZN7QVectorIiE16defaultConstructEPiS1_
FNDA:0,_ZN7QVectorIiE16defaultConstructEPiS1_
FN:347,_ZN7QVectorIiE8destructEPiS1_
FNDA:72,_ZN7QVectorIiE8destructEPiS1_
FN:382,_ZN7QVectorIiE6detachEv
FNDA:254,_ZN7QVectorIiE6detachEv
FN:410,_ZN7QVectorIiE6resizeEi
FNDA:42,_ZN7QVectorIiE6resizeEi
FN:425,_ZN7QVectorIiE5clearEv
FNDA:42,_ZN7QVectorIiE5clearEv
FN:436,_ZN7QVectorIiEixEi
FNDA:202,_ZN7QVectorIiEixEi
FN:540,_ZN7QVectorIiE8freeDataEP15QTypedArrayDataIiE
FNDA:26,_ZN7QVectorIiE8freeDataEP15QTypedArrayDataIiE
FN:552,_ZN7QVectorIiE11reallocDataEii6QFlagsIN10QArrayData16AllocationOptionEE
FNDA:83,_ZN7QVectorIiE11reallocDataEii6QFlagsIN10QArrayData16AllocationOptionEE
FN:676,_ZN7QVectorIiE6appendERKi
FNDA:164,_ZN7QVectorIiE6appendERKi
FN:933,_ZNK7QVectorIiE8containsERKi
FNDA:84,_ZNK7QVectorIiE8containsERKi
DA:69,21
DA:73,35
DA:87,164
DA:106,460
DA:127,206
DA:205,20
DA:209,20
DA:324,0
DA:331,0
DA:333,0
DA:347,72
DA:354,72
DA:382,254
DA:384,254
DA:386,7
DA:387,0
DA:390,7
DA:393,254
DA:410,42
DA:413,42
DA:414,42
DA:416,42
DA:417,0
DA:418,0
DA:420,42
DA:422,42
DA:423,42
DA:425,42
DA:426,42
DA:436,202
DA:438,202
DA:540,26
DA:542,26
DA:543,26
DA:544,26
DA:552,83
DA:555,83
DA:557,83
DA:559,83
DA:560,83
DA:563,41
DA:564,41
DA:570,41
DA:572,41
DA:573,41
DA:574,41
DA:592,41
DA:593,41
DA:596,41
DA:597,0
DA:600,41
DA:603,0
DA:615,0
DA:616,0
DA:617,0
DA:619,41
DA:624,42
DA:625,42
DA:627,0
DA:629,42
DA:632,0
DA:634,83
DA:635,41
DA:636,15
DA:639,0
DA:641,15
DA:644,41
DA:655,83
DA:676,164
DA:678,164
DA:679,164
DA:680,20
DA:681,20
DA:682,20
DA:687,20
DA:693,144
DA:695,164
DA:696,164
DA:933,84
DA:935,84
DA:936,84
DA:937,84
end_of_record
SF:/usr/include/x86_64-linux-gnu/qt5/QtCore/qflags.h
FN:120,_ZN6QFlagsIN10QArrayData16AllocationOptionEEC2ES1_
FNDA:0,_ZN6QFlagsIN10QArrayData16AllocationOptionEEC2ES1_
FN:120,_ZN6QFlagsIN2Qt19ImageConversionFlagEEC2ES1_
FNDA:0,_ZN6QFlagsIN2Qt19ImageConversionFlagEEC2ES1_
FN:120,_ZN6QFlagsIN2Qt13AlignmentFlagEEC2ES1_
FNDA:0,_ZN6QFlagsIN2Qt13AlignmentFlagEEC2ES1_
FN:121,_ZN6QFlagsIN2Qt13AlignmentFlagEEC2EMNS2_7PrivateEi
FNDA:0,_ZN6QFlagsIN2Qt13AlignmentFlagEEC2EMNS2_7PrivateEi
FN:121,_ZN6QFlagsIN2Qt10WindowTypeEEC2EMNS2_7PrivateEi
FNDA:0,_ZN6QFlagsIN2Qt10WindowTypeEEC2EMNS2_7PrivateEi
DA:120,0
DA:120,0
DA:120,0
DA:121,0
DA:121,0
end_of_record
SF:/usr/include/x86_64-linux-gnu/qt5/QtCore/qlist.h
FN:100,_ZN9QListData7disposeEv
FNDA:0,_ZN9QListData7disposeEv
FN:116,_ZNK9QListData5beginEv
FNDA:0,_ZNK9QListData5beginEv
FN:117,_ZNK9QListData3endEv
FNDA:0,_ZNK9QListData3endEv
FN:142,_ZN5QListI7QStringE4Node1tEv
FNDA:0,_ZN5QListI7QStringE4Node1tEv
FN:172,_ZN5QListI7QStringE6detachEv
FNDA:0,_ZN5QListI7QStringE6detachEv
FN:235,_ZN5QListI7QStringE8iteratorC2EPNS1_4NodeE
FNDA:0,_ZN5QListI7QStringE8iteratorC2EPNS1_4NodeE
FN:241,_ZNK5QListI7QStringE8iteratordeEv
FNDA:0,_ZNK5QListI7QStringE8iteratordeEv
FN:245,_ZNK5QListI7QStringE8iteratorneERKS2_
FNDA:0,_ZNK5QListI7QStringE8iteratorneERKS2_
FN:264,_ZN5QListI7QStringE8iteratorppEv
FNDA:0,_ZN5QListI7QStringE8iteratorppEv
FN:324,_ZN5QListI7QStringE5beginEv
FNDA:0,_ZN5QListI7QStringE5beginEv
FN:328,_ZN5QListI7QStringE3endEv
FNDA:0,_ZN5QListI7QStringE3endEv
FN:459,_ZN5QListI7QStringE9node_copyEPNS1_4NodeES3_S3_
FNDA:0,_ZN5QListI7QStringE9node_copyEPNS1_4NodeES3_S3_
FN:494,_ZN5QListI7QStringE13node_destructEPNS1_4NodeES3_
FNDA:0,_ZN5QListI7QStringE13node_destructEPNS1_4NodeES3_
FN:786,_ZN5QListI7QStringE13detach_helperEi
FNDA:0,_ZN5QListI7QStringE13detach_helperEi
FN:803,_ZN5QListI7QStringE13detach_helperEv
FNDA:0,_ZN5QListI7QStringE13detach_helperEv
FN:827,_ZN5QListI7QStringED2Ev
FNDA:0,_ZN5QListI7QStringED2Ev
FN:866,_ZN5QListI7QStringE7deallocEPN9QListData4DataE
FNDA:0,_ZN5QListI7QStringE7deallocEPN9QListData4DataE
DA:100,0
DA:116,0
DA:117,0
DA:142,0
DA:144,0
DA:172,0
DA:235,0
DA:241,0
DA:245,0
DA:264,0
DA:324,0
DA:328,0
DA:459,0
DA:461,0
DA:477,0
DA:478,0
DA:479,0
DA:480,0
DA:491,0
DA:494,0
DA:499,0
DA:500,0
DA:786,0
DA:788,0
DA:789,0
DA:791,0
DA:792,0
DA:793,0
DA:794,0
DA:795,0
DA:798,0
DA:799,0
DA:800,0
DA:803,0
DA:805,0
DA:806,0
DA:827,0
DA:829,0
DA:830,0
DA:831,0
DA:866,0
DA:868,0
DA:869,0
DA:870,0
DA:871,0
end_of_record
SF:/usr/include/x86_64-linux-gnu/qt5/QtCore/qatomic.h
FN:60,_ZN14QAtomicIntegerIiEC2Ei
FNDA:0,_ZN14QAtomicIntegerIiEC2Ei
FN:162,_ZN10QAtomicIntC2Ei
FNDA:0,_ZN10QAtomicIntC2Ei
DA:60,0
DA:162,0
end_of_record
SF:/usr/include/c++/9/bits/stl_iterator_base_types.h
FN:205,_ZSt19__iterator_categoryIPKiENSt15iterator_traitsIT_E17iterator_categoryERKS3_
FNDA:84,_ZSt19__iterator_categoryIPKiENSt15iterator_traitsIT_E17iterator_categoryERKS3_
DA:205,84
DA:206,84
end_of_record
SF:/usr/include/c++/9/bits/predefined_ops.h
FN:234,_ZN9__gnu_cxx5__ops16_Iter_equals_valIKiEC2ERS2_
FNDA:84,_ZN9__gnu_cxx5__ops16_Iter_equals_valIKiEC2ERS2_
FN:240,_ZN9__gnu_cxx5__ops16_Iter_equals_valIKiEclIPS2_EEbT_
FNDA:62,_ZN9__gnu_cxx5__ops16_Iter_equals_valIKiEclIPS2_EEbT_
FN:246,_ZN9__gnu_cxx5__ops17__iter_equals_valIKiEENS0_16_Iter_equals_valIT_EERS4_
FNDA:84,_ZN9__gnu_cxx5__ops17__iter_equals_valIKiEENS0_16_Iter_equals_valIT_EERS4_
DA:234,84
DA:235,84
DA:236,84
DA:240,62
DA:241,62
DA:246,84
DA:247,84
end_of_record
SF:/usr/include/x86_64-linux-gnu/qt5/QtCore/qmap.h
FN:69,_Z15qMapLessThanKeyIiEbRKT_S2_
FNDA:2230,_Z15qMapLessThanKeyIiEbRKT_S2_
FN:92,_ZN12QMapNodeBase8nextNodeEv
FNDA:40,_ZN12QMapNodeBase8nextNodeEv
FN:96,_ZNK12QMapNodeBase5colorEv
FNDA:0,_ZNK12QMapNodeBase5colorEv
FN:97,_ZN12QMapNodeBase8setColorENS_5ColorE
FNDA:0,_ZN12QMapNodeBase8setColorENS_5ColorE
FN:99,_ZN12QMapNodeBase9setParentEPS_
FNDA:0,_ZN12QMapNodeBase9setParentEPS_
FN:106,_ZN12QMapNodeBase25callDestructorIfNecessaryIP10CardWidgetEENSt9enable_ifIXntsr9QTypeInfoIT_E9isComplexEvE4typeERS5_
FNDA:2,_ZN12QMapNodeBase25callDestructorIfNecessaryIP10CardWidgetEENSt9enable_ifIXntsr9QTypeInfoIT_E9isComplexEvE4typeERS5_
FN:106,_ZN12QMapNodeBase25callDestructorIfNecessaryIiEENSt9enable_ifIXntsr9QTypeInfoIT_E9isComplexEvE4typeERS3_
FNDA:2,_ZN12QMapNodeBase25callDestructorIfNecessaryIiEENSt9enable_ifIXntsr9QTypeInfoIT_E9isComplexEvE4typeERS3_
FN:115,_ZNK8QMapNodeIiP10CardWidgetE8leftNodeEv
FNDA:656,_ZNK8QMapNodeIiP10CardWidgetE8leftNodeEv
FN:116,_ZNK8QMapNodeIiP10CardWidgetE9rightNodeEv
FNDA:1254,_ZNK8QMapNodeIiP10CardWidgetE9rightNodeEv
FN:120,_ZN8QMapNodeIiP10CardWidgetE8nextNodeEv
FNDA:40,_ZN8QMapNodeIiP10CardWidgetE8nextNodeEv
FN:125,_ZN8QMapNodeIiP10CardWidgetE14destroySubTreeEv
FNDA:2,_ZN8QMapNodeIiP10CardWidgetE14destroySubTreeEv
FN:136,_ZN8QMapNodeIiP10CardWidgetE16doDestroySubTreeESt17integral_constantIbLb0EE
FNDA:2,_ZN8QMapNodeIiP10CardWidgetE16doDestroySubTreeESt17integral_constantIbLb0EE
FN:150,_ZN8QMapNodeIiP10CardWidgetE10lowerBoundERKi
FNDA:396,_ZN8QMapNodeIiP10CardWidgetE10lowerBoundERKi
FN:210,_ZNK8QMapDataIiP10CardWidgetE4rootEv
FNDA:446,_ZNK8QMapDataIiP10CardWidgetE4rootEv
FN:215,_ZN8QMapDataIiP10CardWidgetE3endEv
FNDA:42,_ZN8QMapDataIiP10CardWidgetE3endEv
FN:217,_ZN8QMapDataIiP10CardWidgetE5beginEv
FNDA:2,_ZN8QMapDataIiP10CardWidgetE5beginEv
FN:223,_ZN8QMapDataIiP10CardWidgetE10createNodeERKiRKS1_P8QMapNodeIiS1_Eb
FNDA:40,_ZN8QMapDataIiP10CardWidgetE10createNodeERKiRKS1_P8QMapNodeIiS1_Eb
FN:242,_ZN8QMapDataIiP10CardWidgetE6createEv
FNDA:2,_ZN8QMapDataIiP10CardWidgetE6createEv
FN:246,_ZN8QMapDataIiP10CardWidgetE7destroyEv
FNDA:2,_ZN8QMapDataIiP10CardWidgetE7destroyEv
FN:256,_ZNK8QMapNodeIiP10CardWidgetE4copyEP8QMapDataIiS1_E
FNDA:0,_ZNK8QMapNodeIiP10CardWidgetE4copyEP8QMapDataIiS1_E
FN:284,_ZNK8QMapDataIiP10CardWidgetE8findNodeERKi
FNDA:400,_ZNK8QMapDataIiP10CardWidgetE8findNodeERKi
FN:328,_ZN4QMapIiP10CardWidgetEC2Ev
FNDA:2,_ZN4QMapIiP10CardWidgetEC2Ev
FN:339,_ZN4QMapIiP10CardWidgetED2Ev
FNDA:2,_ZN4QMapIiP10CardWidgetED2Ev
FN:364,_ZN4QMapIiP10CardWidgetE6detachEv
FNDA:164,_ZN4QMapIiP10CardWidgetE6detachEv
FN:420,_ZN4QMapIiP10CardWidgetE8iteratorC2EP8QMapNodeIiS1_E
FNDA:44,_ZN4QMapIiP10CardWidgetE8iteratorC2EP8QMapNodeIiS1_E
FN:424,_ZNK4QMapIiP10CardWidgetE8iteratordeEv
FNDA:80,_ZNK4QMapIiP10CardWidgetE8iteratordeEv
FN:427,_ZNK4QMapIiP10CardWidgetE8iteratorneERKS3_
FNDA:42,_ZNK4QMapIiP10CardWidgetE8iteratorneERKS3_
FN:429,_ZN4QMapIiP10CardWidgetE8iteratorppEv
FNDA:40,_ZN4QMapIiP10CardWidgetE8iteratorppEv
FN:557,_ZN4QMapIiP10CardWidgetE5beginEv
FNDA:2,_ZN4QMapIiP10CardWidgetE5beginEv
FN:561,_ZN4QMapIiP10CardWidgetE3endEv
FNDA:2,_ZN4QMapIiP10CardWidgetE3endEv
FN:656,_ZNK4QMapIiP10CardWidgetE5valueERKiRKS1_
FNDA:200,_ZNK4QMapIiP10CardWidgetE5valueERKiRKS1_
FN:671,_ZN4QMapIiP10CardWidgetEixERKi
FNDA:120,_ZN4QMapIiP10CardWidgetEixERKi
FN:698,_ZNK4QMapIiP10CardWidgetE8containsERKi
FNDA:80,_ZNK4QMapIiP10CardWidgetE8containsERKi
FN:704,_ZN4QMapIiP10CardWidgetE6insertERKiRKS1_
FNDA:40,_ZN4QMapIiP10CardWidgetE6insertERKiRKS1_
FN:1004,_ZN4QMapIiP10CardWidgetE13detach_helperEv
FNDA:2,_ZN4QMapIiP10CardWidgetE13detach_helperEv
DA:69,2230
DA:71,2230
DA:92,40
DA:96,0
DA:97,0
DA:99,0
DA:106,2
DA:106,2
DA:115,656
DA:116,1254
DA:120,40
DA:125,2
DA:127,2
DA:128,2
DA:129,2
DA:130,2
DA:136,2
DA:150,396
DA:152,396
DA:153,396
DA:154,2140
DA:155,1744
DA:156,656
DA:157,656
DA:159,1088
DA:162,396
DA:210,446
DA:215,42
DA:217,2
DA:223,40
DA:225,40
DA:228,40
DA:230,40
DA:239,40
DA:242,2
DA:243,2
DA:246,2
DA:247,2
DA:248,2
DA:249,2
DA:251,2
DA:252,2
DA:256,0
DA:258,0
DA:259,0
DA:260,0
DA:261,0
DA:262,0
DA:264,0
DA:266,0
DA:267,0
DA:268,0
DA:270,0
DA:272,0
DA:284,400
DA:286,400
DA:287,396
DA:288,396
DA:289,320
DA:291,80
DA:328,2
DA:339,2
DA:364,164
DA:420,44
DA:424,80
DA:427,42
DA:429,40
DA:430,40
DA:431,40
DA:557,2
DA:561,2
DA:656,200
DA:658,200
DA:659,200
DA:671,120
DA:673,120
DA:674,120
DA:675,120
DA:676,40
DA:677,80
DA:698,80
DA:700,80
DA:704,40
DA:706,40
DA:707,40
DA:708,40
DA:709,40
DA:710,40
DA:711,206
DA:712,166
DA:713,166
DA:714,0
DA:715,0
DA:716,0
DA:718,166
DA:719,166
DA:722,40
DA:723,0
DA:724,0
DA:726,40
DA:727,40
DA:1004,2
DA:1006,2
DA:1007,2
DA:1008,0
DA:1009,0
DA:1011,2
DA:1012,0
DA:1013,2
DA:1014,2
DA:1015,2
end_of_record
SF:/usr/include/c++/9/bits/stl_algo.h
FN:112,_ZSt9__find_ifIPKiN9__gnu_cxx5__ops16_Iter_equals_valIS0_EEET_S6_S6_T0_St26random_access_iterator_tag
FNDA:84,_ZSt9__find_ifIPKiN9__gnu_cxx5__ops16_Iter_equals_valIS0_EEET_S6_S6_T0_St26random_access_iterator_tag
FN:159,_ZSt9__find_ifIPKiN9__gnu_cxx5__ops16_Iter_equals_valIS0_EEET_S6_S6_T0_
FNDA:84,_ZSt9__find_ifIPKiN9__gnu_cxx5__ops16_Iter_equals_valIS0_EEET_S6_S6_T0_
FN:3930,_ZSt4findIPKiiET_S2_S2_RKT0_
FNDA:84,_ZSt4findIPKiiET_S2_S2_RKT0_
DA:112,84
DA:116,84
DA:118,88
DA:120,4
DA:121,0
DA:122,4
DA:124,4
DA:125,0
DA:126,4
DA:128,4
DA:129,0
DA:130,4
DA:132,4
DA:133,0
DA:134,4
DA:137,84
DA:139,0
DA:140,0
DA:141,0
DA:142,0
DA:143,4
DA:144,4
DA:145,2
DA:146,2
DA:147,42
DA:148,42
DA:149,2
DA:150,40
DA:151,80
DA:153,80
DA:159,84
DA:161,84
DA:162,168
DA:3930,84
DA:3938,84
DA:3939,84
end_of_record
SF:/usr/include/c++/9/new
FN:173,_ZnwmPv
FNDA:0,_ZnwmPv
DA:173,0
DA:174,0
end_of_record
SF:/usr/include/c++/9/atomic
FN:759,_ZNSt6atomicIiEC2Ei
FNDA:0,_ZNSt6atomicIiEC2Ei
DA:759,0
end_of_record
SF:/usr/include/x86_64-linux-gnu/qt5/QtWidgets/qwidget.h
FN:787,_ZN7QWidget14setMinimumSizeERK5QSize
FNDA:0,_ZN7QWidget14setMinimumSizeERK5QSize
FN:790,_ZN7QWidget14setMaximumSizeERK5QSize
FNDA:0,_ZN7QWidget14setMaximumSizeERK5QSize
FN:838,_ZN7QWidget6resizeEii
FNDA:0,_ZN7QWidget6resizeEii
FN:850,_ZNK7QWidget4sizeEv
FNDA:0,_ZNK7QWidget4sizeEv
DA:787,0
DA:788,0
DA:790,0
DA:791,0
DA:838,0
DA:839,0
DA:850,0
DA:851,0
end_of_record
SF:/home/user/Desktop/pobedi-me-ako-znas/application/memorija.cpp
FN:14,_ZN8MemorijaC2EP7QWidgetP10QTcpSocket7QStringS4_bii
FNDA:2,_ZN8MemorijaC2EP7QWidgetP10QTcpSocket7QStringS4_bii
FN:48,_ZN8MemorijaD2Ev
FNDA:2,_ZN8MemorijaD2Ev
FN:48,_ZN8MemorijaD0Ev
FNDA:2,_ZN8MemorijaD0Ev
FN:61,_ZN8Memorija16getPlayer1PointsEv
FNDA:2,_ZN8Memorija16getPlayer1PointsEv
FN:66,_ZN8Memorija16getPlayer2PointsEv
FNDA:2,_ZN8Memorija16getPlayer2PointsEv
FN:71,_ZN8Memorija10getPlayer1Ev
FNDA:0,_ZN8Memorija10getPlayer1Ev
FN:76,_ZN8Memorija10getPlayer2Ev
FNDA:0,_ZN8Memorija10getPlayer2Ev
FN:81,_ZN8Memorija5getUiEv
FNDA:0,_ZN8Memorija5getUiEv
FN:86,_ZN8Memorija15setUpBackgroundEv
FNDA:2,_ZN8Memorija15setUpBackgroundEv
FN:95,_ZN8Memorija13startMemorijaEv
FNDA:2,_ZN8Memorija13startMemorijaEv
FN:102,_ZN8Memorija14initializeGameER7QVectorIiE
FNDA:4,_ZN8Memorija14initializeGameER7QVectorIiE
FN:138,_ZN8Memorija13onCardClickedEi
FNDA:40,_ZN8Memorija13onCardClickedEi
FN:219,_ZN8Memorija13opponentsViewEi
FNDA:40,_ZN8Memorija13opponentsViewEi
FN:257,_ZN8Memorija18hideUnmatchedCardsEv
FNDA:10,_ZN8Memorija18hideUnmatchedCardsEv
FN:268,_ZN8Memorija20hideUnmatchedCardsOpEv
FNDA:10,_ZN8Memorija20hideUnmatchedCardsOpEv
FN:279,_ZN8Memorija13checkForMatchEv
FNDA:20,_ZN8Memorija13checkForMatchEv
FN:287,_ZN8Memorija15checkForMatchOpEv
FNDA:20,_ZN8Memorija15checkForMatchOpEv
FN:295,_ZN8Memorija16resetTurnedCardsEv
FNDA:20,_ZN8Memorija16resetTurnedCardsEv
FN:300,_ZN8Memorija11onReadyReadEv
FNDA:61,_ZN8Memorija11onReadyReadEv
FN:321,_ZN8Memorija20processServerMessageE7QString
FNDA:66,_ZN8Memorija20processServerMessageE7QString
FN:390,_ZN8Memorija11sendMessageEP10QTcpSocket7QString
FNDA:63,_ZN8Memorija11sendMessageEP10QTcpSocket7QString
FN:396,_ZN8Memorija11switchTurnsEb
FNDA:10,_ZN8Memorija11switchTurnsEb
FN:411,_ZN8Memorija16blockWholeWindowEb
FNDA:22,_ZN8Memorija16blockWholeWindowEb
DA:14,2
DA:15,2
DA:16,2
DA:18,2
DA:19,2
DA:20,2
DA:21,2
DA:22,2
DA:23,2
DA:24,2
DA:25,2
DA:26,2
DA:28,2
DA:30,1
DA:31,1
DA:32,1
DA:33,1
DA:37,1
DA:38,1
DA:39,1
DA:40,1
DA:43,2
DA:45,2
DA:46,2
DA:48,2
DA:59,2
DA:48,2
DA:51,42
DA:53,40
DA:55,40
DA:58,2
DA:59,2
DA:61,2
DA:63,2
DA:66,2
DA:68,2
DA:71,0
DA:73,0
DA:76,0
DA:78,0
DA:81,0
DA:83,0
DA:86,2
DA:88,4
DA:89,2
DA:90,4
DA:91,2
DA:92,2
DA:93,2
DA:95,2
DA:98,2
DA:99,2
DA:100,2
DA:102,4
DA:104,4
DA:106,4
DA:108,20
DA:110,96
DA:113,80
DA:115,80
DA:117,80
DA:118,80
DA:120,80
DA:122,80
DA:124,40
DA:127,80
DA:128,80
DA:132,4
DA:134,2
DA:136,4
DA:138,40
DA:141,40
DA:143,0
DA:146,40
DA:148,0
DA:151,40
DA:153,40
DA:155,0
DA:158,40
DA:159,40
DA:161,24
DA:165,16
DA:168,40
DA:170,40
DA:172,20
DA:174,10
DA:175,10
DA:177,7
DA:178,7
DA:179,7
DA:183,3
DA:184,3
DA:185,3
DA:190,10
DA:192,10
DA:194,10
DA:198,0
DA:201,10
DA:203,10
DA:205,5
DA:209,5
DA:212,20
DA:219,40
DA:221,40
DA:223,0
DA:226,40
DA:228,40
DA:230,0
DA:233,40
DA:235,40
DA:237,40
DA:239,20
DA:241,10
DA:245,10
DA:247,20
DA:249,20
DA:251,1
DA:252,2
DA:257,10
DA:260,10
DA:262,30
DA:264,20
DA:266,10
DA:268,10
DA:271,10
DA:273,30
DA:275,20
DA:277,10
DA:279,20
DA:281,20
DA:282,20
DA:284,20
DA:287,20
DA:289,20
DA:290,20
DA:292,20
DA:295,20
DA:297,20
DA:298,20
DA:300,61
DA:303,122
DA:304,122
DA:306,122
DA:308,188
DA:310,127
DA:312,66
DA:319,61
DA:321,66
DA:324,66
DA:326,8
DA:328,8
DA:330,8
DA:331,84
DA:334,80
DA:335,80
DA:337,80
DA:341,0
DA:345,4
DA:347,62
DA:350,10
DA:352,3
DA:353,3
DA:357,7
DA:358,7
DA:361,52
DA:363,80
DA:365,40
DA:366,40
DA:368,40
DA:372,0
DA:375,12
DA:377,10
DA:379,2
DA:381,2
DA:382,2
DA:386,0
DA:388,66
DA:390,63
DA:392,63
DA:393,63
DA:394,63
DA:396,10
DA:399,10
DA:401,0
DA:405,10
DA:408,10
DA:409,10
DA:411,22
DA:414,22
DA:415,22
DA:416,22
DA:417,22
DA:418,22
DA:419,22
DA:420,22
DA:421,22
DA:422,22
DA:423,22
DA:424,22
DA:425,22
DA:426,22
DA:427,22
DA:428,22
DA:429,22
DA:430,22
DA:431,22
DA:432,22
DA:433,22
DA:434,22
end_of_record
SF:/usr/include/c++/9/bits/move.h
FN:99,_ZSt4moveIRiEONSt16remove_referenceIT_E4typeEOS2_
FNDA:62,_ZSt4moveIRiEONSt16remove_referenceIT_E4typeEOS2_
DA:99,62
DA:100,62
end_of_record
SF:/usr/include/x86_64-linux-gnu/qt5/QtCore/qiodevice.h
FN:136,_ZN9QIODevice5writeERK10QByteArray
FNDA:0,_ZN9QIODevice5writeERK10QByteArray
DA:136,0
DA:137,0
end_of_record
SF:/usr/include/x86_64-linux-gnu/qt5/QtCore/qsize.h
FN:119,_ZN5QSizeC2Eii
FNDA:0,_ZN5QSizeC2Eii
FN:130,_ZNK5QSize5widthEv
FNDA:0,_ZNK5QSize5widthEv
FN:133,_ZNK5QSize6heightEv
FNDA:0,_ZNK5QSize6heightEv
DA:119,0
DA:130,0
DA:131,0
DA:133,0
DA:134,0
end_of_record
SF:/usr/include/x86_64-linux-gnu/qt5/QtCore/qdebug.h
FN:125,_ZN6QDebug10maybeSpaceEv
FNDA:0,_ZN6QDebug10maybeSpaceEv
FN:153,_ZN6QDebuglsEPKc
FNDA:0,_ZN6QDebuglsEPKc
FN:155,_ZN6QDebuglsERK7QString
FNDA:0,_ZN6QDebuglsERK7QString
FN:165,_ZN6QDebuglsEPFR11QTextStreamS1_E
FNDA:0,_ZN6QDebuglsEPFR11QTextStreamS1_E
DA:125,0
DA:153,0
DA:155,0
DA:165,0
DA:166,0
DA:167,0
end_of_record
SF:/usr/include/x86_64-linux-gnu/qt5/QtCore/qchar.h
FN:86,_ZN5QCharC2Ei
FNDA:0,_ZN5QCharC2Ei
DA:86,0
end_of_record
SF:/usr/include/x86_64-linux-gnu/qt5/QtCore/qstringlist.h
FN:69,_ZN19QListSpecialMethodsI7QStringED2Ev
FNDA:0,_ZN19QListSpecialMethodsI7QStringED2Ev
DA:69,0
end_of_record
SF:/usr/include/x86_64-linux-gnu/qt5/QtCore/qarraydata.h
FN:57,_ZN10QArrayData4dataEv
FNDA:0,_ZN10QArrayData4dataEv
FN:123,_ZN10QArrayData10sharedNullEv
FNDA:0,_ZN10QArrayData10sharedNullEv
FN:208,_ZN15QTypedArrayDataIiE4dataEv
FNDA:911,_ZN15QTypedArrayDataIiE4dataEv
FN:208,_ZN15QTypedArrayDataItE4dataEv
FNDA:0,_ZN15QTypedArrayDataItE4dataEv
FN:208,_ZN15QTypedArrayDataIcE4dataEv
FNDA:0,_ZN15QTypedArrayDataIcE4dataEv
FN:211,_ZN15QTypedArrayDataIiE5beginEPi
FNDA:529,_ZN15QTypedArrayDataIiE5beginEPi
FN:212,_ZN15QTypedArrayDataIiE3endEPi
FNDA:382,_ZN15QTypedArrayDataIiE3endEPi
FN:220,_ZN15QTypedArrayDataIiE8allocateEm6QFlagsIN10QArrayData16AllocationOptionEE
FNDA:41,_ZN15QTypedArrayDataIiE8allocateEm6QFlagsIN10QArrayData16AllocationOptionEE
FN:236,_ZN15QTypedArrayDataIiE10deallocateEP10QArrayData
FNDA:41,_ZN15QTypedArrayDataIiE10deallocateEP10QArrayData
FN:236,_ZN15QTypedArrayDataItE10deallocateEP10QArrayData
FNDA:0,_ZN15QTypedArrayDataItE10deallocateEP10QArrayData
FN:236,_ZN15QTypedArrayDataIcE10deallocateEP10QArrayData
FNDA:0,_ZN15QTypedArrayDataIcE10deallocateEP10QArrayData
FN:257,_ZN15QTypedArrayDataIiE10sharedNullEv
FNDA:21,_ZN15QTypedArrayDataIiE10sharedNullEv
FN:257,_ZN15QTypedArrayDataItE10sharedNullEv
FNDA:0,_ZN15QTypedArrayDataItE10sharedNullEv
FN:270,_ZN15QTypedArrayDataIiE15unsharableEmptyEv
FNDA:0,_ZN15QTypedArrayDataIiE15unsharableEmptyEv
DA:57,0
DA:61,0
DA:123,0
DA:208,911
DA:208,0
DA:208,0
DA:211,529
DA:212,382
DA:220,41
DA:224,41
DA:225,41
DA:236,41
DA:239,41
DA:240,41
DA:236,0
DA:239,0
DA:240,0
DA:236,0
DA:239,0
DA:240,0
DA:257,21
DA:260,21
DA:257,0
DA:260,0
DA:270,0
DA:273,0
end_of_record
SF:/usr/include/x86_64-linux-gnu/qt5/QtCore/qstring.h
FN:483,_ZN7QStringpLERKS_
FNDA:0,_ZN7QStringpLERKS_
FN:549,_ZNKR7QString6toUtf8Ev
FNDA:0,_ZNKR7QString6toUtf8Ev
FN:570,_ZN7QString8fromUtf8EPKci
FNDA:0,_ZN7QString8fromUtf8EPKci
FN:580,_ZN7QString8fromUtf8ERK10QByteArray
FNDA:0,_ZN7QString8fromUtf8ERK10QByteArray
FN:699,_ZN7QStringC2EPKc
FNDA:0,_ZN7QStringC2EPKc
FN:933,_ZNK7QString6lengthEv
FNDA:0,_ZNK7QString6lengthEv
FN:941,_ZNK7QString7isEmptyEv
FNDA:0,_ZNK7QString7isEmptyEv
FN:949,_ZNK7QString9constDataEv
FNDA:0,_ZNK7QString9constDataEv
FN:957,_ZN7QStringC2ERKS_
FNDA:0,_ZN7QStringC2ERKS_
FN:1134,_ZN7QStringC2Ev
FNDA:0,_ZN7QStringC2Ev
FN:1135,_ZN7QStringD2Ev
FNDA:0,_ZN7QStringD2Ev
FN:1349,_ZplRK7QStringS1_
FNDA:17,_ZplRK7QStringS1_
FN:1356,_ZplRK7QStringPKc
FNDA:0,_ZplRK7QStringPKc
FN:1358,_ZplPKcRK7QString
FNDA:0,_ZplPKcRK7QString
DA:483,0
DA:549,0
DA:550,0
DA:570,0
DA:572,0
DA:580,0
DA:581,0
DA:699,0
DA:700,0
DA:701,0
DA:933,0
DA:934,0
DA:941,0
DA:942,0
DA:949,0
DA:950,0
DA:957,0
DA:958,0
DA:1134,0
DA:1135,0
DA:1349,17
DA:1350,17
DA:1356,0
DA:1357,0
DA:1358,0
DA:1359,0
end_of_record
SF:/usr/include/x86_64-linux-gnu/qt5/QtCore/qrect.h
FN:184,_ZN5QRectC2Eiiii
FNDA:0,_ZN5QRectC2Eiiii
FN:265,_ZNK5QRect5widthEv
FNDA:0,_ZNK5QRect5widthEv
FN:268,_ZNK5QRect6heightEv
FNDA:0,_ZNK5QRect6heightEv
FN:271,_ZNK5QRect4sizeEv
FNDA:0,_ZNK5QRect4sizeEv
DA:184,0
DA:185,0
DA:265,0
DA:266,0
DA:268,0
DA:269,0
DA:271,0
DA:272,0
end_of_record
SF:/usr/include/x86_64-linux-gnu/qt5/QtCore/qbytearray.h
FN:76,_Z8qstrnlenPKcj
FNDA:0,_Z8qstrnlenPKcj
FN:476,_ZN10QByteArrayD2Ev
FNDA:0,_ZN10QByteArrayD2Ev
FN:477,_ZNK10QByteArray4sizeEv
FNDA:0,_ZNK10QByteArray4sizeEv
FN:497,_ZNK10QByteArray4dataEv
FNDA:0,_ZNK10QByteArray4dataEv
FN:499,_ZNK10QByteArray9constDataEv
FNDA:0,_ZNK10QByteArray9constDataEv
DA:76,0
DA:78,0
DA:79,0
DA:80,0
DA:81,0
DA:83,0
DA:476,0
DA:477,0
DA:478,0
DA:497,0
DA:498,0
DA:499,0
DA:500,0
end_of_record
SF:/usr/include/x86_64-linux-gnu/qt5/QtCore/qglobal.h
FN:594,_Z4qMinIiERKT_S2_S2_
FNDA:4,_Z4qMinIiERKT_S2_S2_
FN:596,_Z4qMaxIiERKT_S2_S2_
FNDA:4,_Z4qMaxIiERKT_S2_S2_
FN:598,_Z6qBoundIiERKT_S2_S2_S2_
FNDA:4,_Z6qBoundIiERKT_S2_S2_S2_
DA:594,4
DA:596,4
DA:598,4
DA:599,4
end_of_record
SF:/usr/include/x86_64-linux-gnu/qt5/QtCore/qatomic_cxx11.h
FN:225,_ZN10QAtomicOpsIiE4loadIiEET_RKSt6atomicIS2_E
FNDA:0,_ZN10QAtomicOpsIiE4loadIiEET_RKSt6atomicIS2_E
FN:263,_ZN10QAtomicOpsIiE3refIiEEbRSt6atomicIT_E
FNDA:0,_ZN10QAtomicOpsIiE3refIiEEbRSt6atomicIT_E
FN:269,_ZN10QAtomicOpsIiE5derefIiEEbRSt6atomicIT_E
FNDA:0,_ZN10QAtomicOpsIiE5derefIiEEbRSt6atomicIT_E
DA:225,0
DA:227,0
DA:263,0
DA:265,0
DA:269,0
DA:271,0
end_of_record
SF:/usr/include/x86_64-linux-gnu/qt5/QtGui/qpalette.h
FN:200,_ZN8QPalette8setBrushENS_9ColorRoleERK6QBrush
FNDA:0,_ZN8QPalette8setBrushENS_9ColorRoleERK6QBrush
DA:200,0
DA:201,0
end_of_record
SF:/home/user/Desktop/pobedi-me-ako-znas/build/application/application_autogen/include/ui_memorija.h
FN:56,_ZN11Ui_Memorija7setupUiEP7QWidget
FNDA:2,_ZN11Ui_Memorija7setupUiEP7QWidget
FN:227,_ZN11Ui_Memorija13retranslateUiEP7QWidget
FNDA:2,_ZN11Ui_Memorija13retranslateUiEP7QWidget
DA:56,2
DA:58,2
DA:59,2
DA:60,2
DA:61,2
DA:62,2
DA:63,2
DA:64,2
DA:65,2
DA:66,2
DA:67,2
DA:68,2
DA:69,2
DA:70,2
DA:72,2
DA:74,2
DA:75,2
DA:77,2
DA:79,2
DA:80,2
DA:82,2
DA:84,2
DA:85,2
DA:87,2
DA:89,2
DA:90,2
DA:92,2
DA:94,2
DA:95,2
DA:97,2
DA:99,2
DA:100,2
DA:102,2
DA:104,2
DA:105,2
DA:107,2
DA:109,2
DA:110,2
DA:112,2
DA:114,2
DA:115,2
DA:117,2
DA:119,2
DA:120,2
DA:122,2
DA:124,2
DA:125,2
DA:127,2
DA:129,2
DA:130,2
DA:132,2
DA:134,2
DA:135,2
DA:137,2
DA:139,2
DA:140,2
DA:142,2
DA:144,2
DA:145,2
DA:147,2
DA:149,2
DA:150,2
DA:152,2
DA:154,2
DA:155,2
DA:157,2
DA:159,2
DA:160,2
DA:162,2
DA:164,2
DA:165,2
DA:166,2
DA:167,2
DA:168,2
DA:169,2
DA:170,2
DA:171,2
DA:173,2
DA:175,2
DA:176,2
DA:177,2
DA:178,2
DA:179,2
DA:180,2
DA:181,2
DA:182,2
DA:183,4
DA:184,2
DA:185,2
DA:186,2
DA:187,2
DA:189,2
DA:190,2
DA:192,2
DA:194,2
DA:195,2
DA:197,2
DA:199,2
DA:200,2
DA:201,2
DA:202,2
DA:203,2
DA:204,2
DA:205,2
DA:206,2
DA:207,2
DA:208,2
DA:209,2
DA:211,2
DA:212,2
DA:214,2
DA:216,2
DA:217,2
DA:219,2
DA:222,2
DA:224,2
DA:225,2
DA:227,2
DA:229,2
DA:230,2
end_of_record
SF:/home/user/Desktop/pobedi-me-ako-znas/application/memorija.h
end_of_record
TN:
SF:/usr/include/x86_64-linux-gnu/qt5/QtCore/qbasicatomic.h
FN:103,_ZNK19QBasicAtomicIntegerIiE4loadEv
FNDA:0,_ZNK19QBasicAtomicIntegerIiE4loadEv
FN:114,_ZN19QBasicAtomicIntegerIiE3refEv
FNDA:0,_ZN19QBasicAtomicIntegerIiE3refEv
FN:115,_ZN19QBasicAtomicIntegerIiE5derefEv
FNDA:0,_ZN19QBasicAtomicIntegerIiE5derefEv
DA:103,0
DA:114,0
DA:115,0
end_of_record
SF:/usr/include/c++/9/bits/atomic_base.h
FN:99,_ZStanSt12memory_orderSt23__memory_order_modifier
FNDA:0,_ZStanSt12memory_orderSt23__memory_order_modifier
FN:318,_ZNSt13__atomic_baseIiEppEv
FNDA:0,_ZNSt13__atomic_baseIiEppEv
FN:326,_ZNSt13__atomic_baseIiEmmEv
FNDA:0,_ZNSt13__atomic_baseIiEmmEv
DA:99,0
DA:101,0
DA:318,0
DA:319,0
DA:326,0
DA:327,0
DA:415,0
DA:419,0
end_of_record
SF:/usr/include/x86_64-linux-gnu/qt5/QtCore/qlogging.h
FN:68,_ZN18QMessageLogContextC2EPKciS1_S1_
FNDA:0,_ZN18QMessageLogContextC2EPKciS1_S1_
FN:91,_ZN14QMessageLoggerC2EPKciS1_
FNDA:0,_ZN14QMessageLoggerC2EPKciS1_
DA:68,0
DA:69,0
DA:91,0
DA:92,0
end_of_record
SF:/usr/include/x86_64-linux-gnu/qt5/QtCore/qrefcount.h
FN:54,_ZN9QtPrivate8RefCount3refEv
FNDA:0,_ZN9QtPrivate8RefCount3refEv
FN:65,_ZN9QtPrivate8RefCount5derefEv
FNDA:0,_ZN9QtPrivate8RefCount5derefEv
FN:99,_ZNK9QtPrivate8RefCount8isSharedEv
FNDA:0,_ZNK9QtPrivate8RefCount8isSharedEv
DA:54,0
DA:55,0
DA:57,0
DA:58,0
DA:60,0
DA:61,0
DA:62,0
DA:65,0
DA:66,0
DA:68,0
DA:69,0
DA:71,0
DA:72,0
DA:73,0
DA:99,0
DA:101,0
DA:102,0
end_of_record
SF:/home/user/Desktop/pobedi-me-ako-znas/application/pogodista.cpp
FN:5,_ZN9PogodiStaC2Ev
FNDA:0,_ZN9PogodiStaC2Ev
FN:10,_ZN9PogodiStaC2Ei7QStringS0_
FNDA:4,_ZN9PogodiStaC2Ei7QStringS0_
FN:17,_ZN9PogodiSta9setAnswerERK7QString
FNDA:2,_ZN9PogodiSta9setAnswerERK7QString
FN:22,_ZNK9PogodiSta9getAnswerEv
FNDA:4,_ZNK9PogodiSta9getAnswerEv
FN:27,_ZN9PogodiSta7setInfoERK7QString
FNDA:0,_ZN9PogodiSta7setInfoERK7QString
FN:32,_ZNK9PogodiSta7getInfoEv
FNDA:10,_ZNK9PogodiSta7getInfoEv
FN:37,_ZNK9PogodiSta16getGuessingImageEv
FNDA:16,_ZNK9PogodiSta16getGuessingImageEv
FN:42,_ZN9PogodiSta15loadRandomImageEi
FNDA:4,_ZN9PogodiSta15loadRandomImageEi
FN:66,_ZN9PogodiSta15calculatePointsEi
FNDA:2,_ZN9PogodiSta15calculatePointsEi
DA:5,0
DA:7,0
DA:8,0
DA:10,4
DA:12,4
DA:13,4
DA:14,4
DA:15,4
DA:17,2
DA:19,2
DA:20,2
DA:22,4
DA:24,4
DA:27,0
DA:29,0
DA:30,0
DA:32,10
DA:34,10
DA:37,16
DA:39,16
DA:42,4
DA:44,8
DA:45,8
DA:46,4
DA:48,4
DA:49,4
DA:51,0
DA:52,0
DA:53,0
DA:54,0
DA:55,0
DA:59,4
DA:61,4
DA:62,4
DA:64,4
DA:66,2
DA:68,2
end_of_record
SF:/usr/include/x86_64-linux-gnu/qt5/QtCore/qflags.h
FN:120,_ZN6QFlagsIN4QDir8SortFlagEEC2ES1_
FNDA:4,_ZN6QFlagsIN4QDir8SortFlagEEC2ES1_
FN:120,_ZN6QFlagsIN4QDir6FilterEEC2ES1_
FNDA:4,_ZN6QFlagsIN4QDir6FilterEEC2ES1_
FN:120,_ZN6QFlagsIN2Qt19ImageConversionFlagEEC2ES1_
FNDA:0,_ZN6QFlagsIN2Qt19ImageConversionFlagEEC2ES1_
DA:120,4
DA:120,4
DA:120,0
end_of_record
SF:/usr/include/x86_64-linux-gnu/qt5/QtCore/qlist.h
FN:75,_ZN19QListSpecialMethodsI9QFileInfoED2Ev
FNDA:4,_ZN19QListSpecialMethodsI9QFileInfoED2Ev
FN:100,_ZN9QListData7disposeEv
FNDA:0,_ZN9QListData7disposeEv
FN:113,_ZNK9QListData4sizeEv
FNDA:0,_ZNK9QListData4sizeEv
FN:114,_ZNK9QListData7isEmptyEv
FNDA:4,_ZNK9QListData7isEmptyEv
FN:115,_ZNK9QListData2atEi
FNDA:0,_ZNK9QListData2atEi
FN:116,_ZNK9QListData5beginEv
FNDA:0,_ZNK9QListData5beginEv
FN:117,_ZNK9QListData3endEv
FNDA:0,_ZNK9QListData3endEv
FN:142,_ZN5QListI7QStringE4Node1tEv
FNDA:0,_ZN5QListI7QStringE4Node1tEv
FN:142,_ZN5QListI9QFileInfoE4Node1tEv
FNDA:4,_ZN5QListI9QFileInfoE4Node1tEv
FN:170,_ZNK5QListI9QFileInfoE4sizeEv
FNDA:0,_ZNK5QListI9QFileInfoE4sizeEv
FN:172,_ZN5QListI7QStringE6detachEv
FNDA:0,_ZN5QListI7QStringE6detachEv
FN:172,_ZN5QListI9QFileInfoE6detachEv
FNDA:4,_ZN5QListI9QFileInfoE6detachEv
FN:195,_ZNK5QListI9QFileInfoE7isEmptyEv
FNDA:4,_ZNK5QListI9QFileInfoE7isEmptyEv
FN:459,_ZN5QListI7QStringE9node_copyEPNS1_4NodeES3_S3_
FNDA:0,_ZN5QListI7QStringE9node_copyEPNS1_4NodeES3_S3_
FN:459,_ZN5QListI9QFileInfoE9node_copyEPNS1_4NodeES3_S3_
FNDA:0,_ZN5QListI9QFileInfoE9node_copyEPNS1_4NodeES3_S3_
FN:494,_ZN5QListI7QStringE13node_destructEPNS1_4NodeES3_
FNDA:0,_ZN5QListI7QStringE13node_destructEPNS1_4NodeES3_
FN:494,_ZN5QListI9QFileInfoE13node_destructEPNS1_4NodeES3_
FNDA:4,_ZN5QListI9QFileInfoE13node_destructEPNS1_4NodeES3_
FN:551,_ZN5QListI7QStringEixEi
FNDA:0,_ZN5QListI7QStringEixEi
FN:551,_ZN5QListI9QFileInfoEixEi
FNDA:4,_ZN5QListI9QFileInfoEixEi
FN:786,_ZN5QListI7QStringE13detach_helperEi
FNDA:0,_ZN5QListI7QStringE13detach_helperEi
FN:786,_ZN5QListI9QFileInfoE13detach_helperEi
FNDA:0,_ZN5QListI9QFileInfoE13detach_helperEi
FN:803,_ZN5QListI9QFileInfoE13detach_helperEv
FNDA:0,_ZN5QListI9QFileInfoE13detach_helperEv
FN:803,_ZN5QListI7QStringE13detach_helperEv
FNDA:0,_ZN5QListI7QStringE13detach_helperEv
FN:827,_ZN5QListI9QFileInfoED2Ev
FNDA:4,_ZN5QListI9QFileInfoED2Ev
FN:827,_ZN5QListI7QStringED2Ev
FNDA:0,_ZN5QListI7QStringED2Ev
FN:866,_ZN5QListI7QStringE7deallocEPN9QListData4DataE
FNDA:0,_ZN5QListI7QStringE7deallocEPN9QListData4DataE
FN:866,_ZN5QListI9QFileInfoE7deallocEPN9QListData4DataE
FNDA:4,_ZN5QListI9QFileInfoE7deallocEPN9QListData4DataE
DA:75,4
DA:100,0
DA:113,0
DA:114,4
DA:115,0
DA:116,0
DA:117,0
DA:142,0
DA:144,0
DA:142,4
DA:144,4
DA:170,0
DA:172,0
DA:172,4
DA:195,4
DA:459,0
DA:461,0
DA:477,0
DA:478,0
DA:479,0
DA:480,0
DA:482,0
DA:483,0
DA:484,0
DA:485,0
DA:491,0
DA:459,0
DA:461,0
DA:477,0
DA:478,0
DA:479,0
DA:480,0
DA:491,0
DA:494,4
DA:499,48
DA:500,4
DA:494,0
DA:499,0
DA:500,0
DA:551,0
DA:553,0
DA:551,4
DA:553,4
DA:786,0
DA:788,0
DA:789,0
DA:791,0
DA:792,0
DA:793,0
DA:794,0
DA:795,0
DA:798,0
DA:799,0
DA:800,0
DA:786,0
DA:788,0
DA:789,0
DA:791,0
DA:792,0
DA:793,0
DA:794,0
DA:795,0
DA:798,0
DA:799,0
DA:800,0
DA:803,0
DA:805,0
DA:806,0
DA:803,0
DA:805,0
DA:806,0
DA:827,4
DA:829,4
DA:830,4
DA:831,4
DA:827,0
DA:829,0
DA:830,0
DA:831,0
DA:866,4
DA:868,4
DA:869,4
DA:870,4
DA:871,4
DA:866,0
DA:868,0
DA:869,0
DA:870,0
DA:871,0
end_of_record
SF:/usr/include/x86_64-linux-gnu/qt5/QtCore/qrandom.h
FN:84,_ZN16QRandomGenerator8generateEv
FNDA:0,_ZN16QRandomGenerator8generateEv
FN:117,_ZN16QRandomGenerator7boundedEj
FNDA:0,_ZN16QRandomGenerator7boundedEj
FN:125,_ZN16QRandomGenerator7boundedEjj
FNDA:0,_ZN16QRandomGenerator7boundedEjj
FN:131,_ZN16QRandomGenerator7boundedEi
FNDA:0,_ZN16QRandomGenerator7boundedEi
FN:143,_ZN16QRandomGenerator9fillRangeIjLb1EEEvPT_x
FNDA:0,_ZN16QRandomGenerator9fillRangeIjLb1EEEvPT_x
FN:173,_ZN16QRandomGenerator3maxEv
FNDA:0,_ZN16QRandomGenerator3maxEv
FN:261,_ZN16QRandomGenerator6globalEv
FNDA:0,_ZN16QRandomGenerator6globalEv
DA:84,0
DA:87,0
DA:88,0
DA:117,0
DA:119,0
DA:120,0
DA:121,0
DA:122,0
DA:125,0
DA:128,0
DA:131,0
DA:134,0
DA:143,0
DA:145,0
DA:146,0
DA:173,0
DA:261,0
DA:263,0
end_of_record
SF:/usr/include/c++/9/new
FN:173,_ZnwmPv
FNDA:0,_ZnwmPv
FN:179,_ZdlPvS_
FNDA:0,_ZdlPvS_
DA:173,0
DA:174,0
DA:179,0
end_of_record
SF:/usr/include/c++/9/bits/move.h
FN:99,_ZSt4moveIRP15QTypedArrayDataItEEONSt16remove_referenceIT_E4typeEOS5_
FNDA:0,_ZSt4moveIRP15QTypedArrayDataItEEONSt16remove_referenceIT_E4typeEOS5_
FN:182,_ZSt4swapIP15QTypedArrayDataItEENSt9enable_ifIXsrSt6__and_IJSt6__not_ISt15__is_tuple_likeIT_EESt21is_move_constructibleIS7_ESt18is_move_assignableIS7_EEE5valueEvE4typeERS7_SH_
FNDA:0,_ZSt4swapIP15QTypedArrayDataItEENSt9enable_ifIXsrSt6__and_IJSt6__not_ISt15__is_tuple_likeIT_EESt21is_move_constructibleIS7_ESt18is_move_assignableIS7_EEE5valueEvE4typeERS7_SH_
DA:99,0
DA:100,0
DA:182,0
DA:193,0
DA:194,0
DA:195,0
DA:196,0
end_of_record
SF:/usr/include/x86_64-linux-gnu/qt5/QtCore/qdebug.h
FN:125,_ZN6QDebug10maybeSpaceEv
FNDA:0,_ZN6QDebug10maybeSpaceEv
FN:153,_ZN6QDebuglsEPKc
FNDA:0,_ZN6QDebuglsEPKc
FN:155,_ZN6QDebuglsERK7QString
FNDA:0,_ZN6QDebuglsERK7QString
DA:125,0
DA:153,0
DA:155,0
end_of_record
SF:/usr/include/c++/9/limits
FN:1135,_ZNSt14numeric_limitsIjE3maxEv
FNDA:0,_ZNSt14numeric_limitsIjE3maxEv
DA:1135,0
end_of_record
SF:/usr/include/x86_64-linux-gnu/qt5/QtCore/qstring.h
FN:235,_ZN7QStringaSEOS_
FNDA:0,_ZN7QStringaSEOS_
FN:483,_ZN7QStringpLERKS_
FNDA:0,_ZN7QStringpLERKS_
FN:570,_ZN7QString8fromUtf8EPKci
FNDA:0,_ZN7QString8fromUtf8EPKci
FN:699,_ZN7QStringC2EPKc
FNDA:0,_ZN7QStringC2EPKc
FN:933,_ZNK7QString6lengthEv
FNDA:0,_ZNK7QString6lengthEv
FN:949,_ZNK7QString9constDataEv
FNDA:0,_ZNK7QString9constDataEv
FN:957,_ZN7QStringC2ERKS_
FNDA:0,_ZN7QStringC2ERKS_
FN:1134,_ZN7QStringC2Ev
FNDA:0,_ZN7QStringC2Ev
FN:1135,_ZN7QStringD2Ev
FNDA:0,_ZN7QStringD2Ev
FN:1356,_ZplRK7QStringPKc
FNDA:0,_ZplRK7QStringPKc
FN:1358,_ZplPKcRK7QString
FNDA:0,_ZplPKcRK7QString
DA:235,0
DA:236,0
DA:483,0
DA:570,0
DA:572,0
DA:699,0
DA:700,0
DA:701,0
DA:933,0
DA:934,0
DA:949,0
DA:950,0
DA:957,0
DA:958,0
DA:1134,0
DA:1135,0
DA:1356,0
DA:1357,0
DA:1358,0
DA:1359,0
end_of_record
SF:/usr/include/x86_64-linux-gnu/qt5/QtCore/qstringlist.h
FN:69,_ZN19QListSpecialMethodsI7QStringED2Ev
FNDA:0,_ZN19QListSpecialMethodsI7QStringED2Ev
DA:69,0
end_of_record
SF:/usr/include/x86_64-linux-gnu/qt5/QtCore/qarraydata.h
FN:57,_ZN10QArrayData4dataEv
FNDA:0,_ZN10QArrayData4dataEv
FN:123,_ZN10QArrayData10sharedNullEv
FNDA:0,_ZN10QArrayData10sharedNullEv
FN:208,_ZN15QTypedArrayDataItE4dataEv
FNDA:0,_ZN15QTypedArrayDataItE4dataEv
FN:236,_ZN15QTypedArrayDataItE10deallocateEP10QArrayData
FNDA:0,_ZN15QTypedArrayDataItE10deallocateEP10QArrayData
FN:257,_ZN15QTypedArrayDataItE10sharedNullEv
FNDA:0,_ZN15QTypedArrayDataItE10sharedNullEv
DA:57,0
DA:61,0
DA:123,0
DA:208,0
DA:236,0
DA:239,0
DA:240,0
DA:257,0
DA:260,0
end_of_record
SF:/usr/include/x86_64-linux-gnu/qt5/QtCore/qglobal.h
FN:911,_Z5qSwapIP15QTypedArrayDataItEEvRT_S4_
FNDA:0,_Z5qSwapIP15QTypedArrayDataItEEvRT_S4_
DA:911,0
DA:915,0
DA:916,0
end_of_record
SF:/usr/include/x86_64-linux-gnu/qt5/QtCore/qatomic_cxx11.h
FN:225,_ZN10QAtomicOpsIiE4loadIiEET_RKSt6atomicIS2_E
FNDA:0,_ZN10QAtomicOpsIiE4loadIiEET_RKSt6atomicIS2_E
FN:263,_ZN10QAtomicOpsIiE3refIiEEbRSt6atomicIT_E
FNDA:0,_ZN10QAtomicOpsIiE3refIiEEbRSt6atomicIT_E
FN:269,_ZN10QAtomicOpsIiE5derefIiEEbRSt6atomicIT_E
FNDA:0,_ZN10QAtomicOpsIiE5derefIiEEbRSt6atomicIT_E
DA:225,0
DA:227,0
DA:263,0
DA:265,0
DA:269,0
DA:271,0
end_of_record
TN:
SF:/usr/include/x86_64-linux-gnu/qt5/QtCore/qlogging.h
FN:68,_ZN18QMessageLogContextC2EPKciS1_S1_
FNDA:0,_ZN18QMessageLogContextC2EPKciS1_S1_
FN:91,_ZN14QMessageLoggerC2EPKciS1_
FNDA:0,_ZN14QMessageLoggerC2EPKciS1_
DA:68,0
DA:69,0
DA:91,0
DA:92,0
end_of_record
SF:/usr/include/x86_64-linux-gnu/qt5/QtCore/qrefcount.h
FN:54,_ZN9QtPrivate8RefCount3refEv
FNDA:0,_ZN9QtPrivate8RefCount3refEv
FN:65,_ZN9QtPrivate8RefCount5derefEv
FNDA:0,_ZN9QtPrivate8RefCount5derefEv
FN:99,_ZNK9QtPrivate8RefCount8isSharedEv
FNDA:0,_ZNK9QtPrivate8RefCount8isSharedEv
DA:54,0
DA:55,0
DA:57,0
DA:58,0
DA:60,0
DA:61,0
DA:62,0
DA:65,0
DA:66,0
DA:68,0
DA:69,0
DA:71,0
DA:72,0
DA:73,0
DA:99,0
DA:101,0
DA:102,0
end_of_record
SF:/usr/include/x86_64-linux-gnu/qt5/QtCore/qvector.h
FN:69,_ZN7QVectorIN12ResultDialog10GameResultEEC2Ev
FNDA:2,_ZN7QVectorIN12ResultDialog10GameResultEEC2Ev
FN:73,_ZN7QVectorIN12ResultDialog10GameResultEED2Ev
FNDA:2,_ZN7QVectorIN12ResultDialog10GameResultEED2Ev
FN:106,_ZNK7QVectorIN12ResultDialog10GameResultEE10isDetachedEv
FNDA:4,_ZNK7QVectorIN12ResultDialog10GameResultEE10isDetachedEv
FN:205,_ZN7QVectorIN12ResultDialog10GameResultEE5beginEv
FNDA:2,_ZN7QVectorIN12ResultDialog10GameResultEE5beginEv
FN:209,_ZN7QVectorIN12ResultDialog10GameResultEE3endEv
FNDA:2,_ZN7QVectorIN12ResultDialog10GameResultEE3endEv
FN:324,_ZN7QVectorIN12ResultDialog10GameResultEE16defaultConstructEPS1_S3_
FNDA:0,_ZN7QVectorIN12ResultDialog10GameResultEE16defaultConstructEPS1_S3_
FN:347,_ZN7QVectorIN12ResultDialog10GameResultEE8destructEPS1_S3_
FNDA:2,_ZN7QVectorIN12ResultDialog10GameResultEE8destructEPS1_S3_
FN:382,_ZN7QVectorIN12ResultDialog10GameResultEE6detachEv
FNDA:4,_ZN7QVectorIN12ResultDialog10GameResultEE6detachEv
FN:540,_ZN7QVectorIN12ResultDialog10GameResultEE8freeDataEP15QTypedArrayDataIS1_E
FNDA:2,_ZN7QVectorIN12ResultDialog10GameResultEE8freeDataEP15QTypedArrayDataIS1_E
FN:552,_ZN7QVectorIN12ResultDialog10GameResultEE11reallocDataEii6QFlagsIN10QArrayData16AllocationOptionEE
FNDA:0,_ZN7QVectorIN12ResultDialog10GameResultEE11reallocDataEii6QFlagsIN10QArrayData16AllocationOptionEE
FN:676,_ZN7QVectorIN12ResultDialog10GameResultEE6appendERKS1_
FNDA:0,_ZN7QVectorIN12ResultDialog10GameResultEE6appendERKS1_
DA:69,2
DA:73,2
DA:106,4
DA:205,2
DA:209,2
DA:324,0
DA:327,0
DA:328,0
DA:333,0
DA:347,2
DA:350,2
DA:351,0
DA:354,2
DA:382,4
DA:384,4
DA:386,2
DA:387,2
DA:390,0
DA:393,4
DA:540,2
DA:542,2
DA:543,2
DA:544,2
DA:552,0
DA:555,0
DA:557,0
DA:559,0
DA:560,0
DA:563,0
DA:564,0
DA:570,0
DA:572,0
DA:573,0
DA:574,0
DA:578,0
DA:580,0
DA:581,0
DA:583,0
DA:584,0
DA:600,0
DA:606,0
DA:607,0
DA:608,0
DA:610,0
DA:611,0
DA:615,0
DA:616,0
DA:617,0
DA:619,0
DA:624,0
DA:625,0
DA:627,0
DA:629,0
DA:632,0
DA:634,0
DA:635,0
DA:639,0
DA:644,0
DA:655,0
DA:676,0
DA:678,0
DA:679,0
DA:680,0
DA:681,0
DA:682,0
DA:685,0
DA:691,0
DA:695,0
DA:696,0
end_of_record
SF:/usr/include/x86_64-linux-gnu/qt5/QtCore/qdatetime.h
FN:274,_ZN9QDateTimeaSEOS_
FNDA:0,_ZN9QDateTimeaSEOS_
FN:278,_ZN9QDateTime4swapERS_
FNDA:0,_ZN9QDateTime4swapERS_
DA:274,0
DA:278,0
end_of_record
SF:/usr/include/x86_64-linux-gnu/qt5/QtCore/qlist.h
FN:100,_ZN9QListData7disposeEv
FNDA:0,_ZN9QListData7disposeEv
FN:113,_ZNK9QListData4sizeEv
FNDA:0,_ZNK9QListData4sizeEv
FN:115,_ZNK9QListData2atEi
FNDA:0,_ZNK9QListData2atEi
FN:116,_ZNK9QListData5beginEv
FNDA:0,_ZNK9QListData5beginEv
FN:117,_ZNK9QListData3endEv
FNDA:0,_ZNK9QListData3endEv
FN:142,_ZN5QListI7QStringE4Node1tEv
FNDA:0,_ZN5QListI7QStringE4Node1tEv
FN:170,_ZNK5QListI7QStringE4sizeEv
FNDA:0,_ZNK5QListI7QStringE4sizeEv
FN:172,_ZN5QListI7QStringE6detachEv
FNDA:0,_ZN5QListI7QStringE6detachEv
FN:235,_ZN5QListI7QStringE8iteratorC2EPNS1_4NodeE
FNDA:0,_ZN5QListI7QStringE8iteratorC2EPNS1_4NodeE
FN:241,_ZNK5QListI7QStringE8iteratordeEv
FNDA:0,_ZNK5QListI7QStringE8iteratordeEv
FN:245,_ZNK5QListI7QStringE8iteratorneERKS2_
FNDA:0,_ZNK5QListI7QStringE8iteratorneERKS2_
FN:264,_ZN5QListI7QStringE8iteratorppEv
FNDA:0,_ZN5QListI7QStringE8iteratorppEv
FN:324,_ZN5QListI7QStringE5beginEv
FNDA:0,_ZN5QListI7QStringE5beginEv
FN:328,_ZN5QListI7QStringE3endEv
FNDA:0,_ZN5QListI7QStringE3endEv
FN:459,_ZN5QListI7QStringE9node_copyEPNS1_4NodeES3_S3_
FNDA:0,_ZN5QListI7QStringE9node_copyEPNS1_4NodeES3_S3_
FN:494,_ZN5QListI7QStringE13node_destructEPNS1_4NodeES3_
FNDA:0,_ZN5QListI7QStringE13node_destructEPNS1_4NodeES3_
FN:551,_ZN5QListI7QStringEixEi
FNDA:0,_ZN5QListI7QStringEixEi
FN:786,_ZN5QListI7QStringE13detach_helperEi
FNDA:0,_ZN5QListI7QStringE13detach_helperEi
FN:803,_ZN5QListI7QStringE13detach_helperEv
FNDA:0,_ZN5QListI7QStringE13detach_helperEv
FN:827,_ZN5QListI7QStringED2Ev
FNDA:0,_ZN5QListI7QStringED2Ev
FN:866,_ZN5QListI7QStringE7deallocEPN9QListData4DataE
FNDA:0,_ZN5QListI7QStringE7deallocEPN9QListData4DataE
DA:100,0
DA:113,0
DA:115,0
DA:116,0
DA:117,0
DA:142,0
DA:144,0
DA:170,0
DA:172,0
DA:235,0
DA:241,0
DA:245,0
DA:264,0
DA:324,0
DA:328,0
DA:459,0
DA:461,0
DA:477,0
DA:478,0
DA:479,0
DA:480,0
DA:491,0
DA:494,0
DA:499,0
DA:500,0
DA:551,0
DA:553,0
DA:786,0
DA:788,0
DA:789,0
DA:791,0
DA:792,0
DA:793,0
DA:794,0
DA:795,0
DA:798,0
DA:799,0
DA:800,0
DA:803,0
DA:805,0
DA:806,0
DA:827,0
DA:829,0
DA:830,0
DA:831,0
DA:866,0
DA:868,0
DA:869,0
DA:870,0
DA:871,0
end_of_record
SF:/usr/include/x86_64-linux-gnu/qt5/QtCore/qflags.h
FN:120,_ZN6QFlagsIN10QArrayData16AllocationOptionEEC2ES1_
FNDA:0,_ZN6QFlagsIN10QArrayData16AllocationOptionEEC2ES1_
FN:121,_ZN6QFlagsIN2Qt13AlignmentFlagEEC2EMNS2_7PrivateEi
FNDA:0,_ZN6QFlagsIN2Qt13AlignmentFlagEEC2EMNS2_7PrivateEi
FN:121,_ZN6QFlagsIN2Qt10WindowTypeEEC2EMNS2_7PrivateEi
FNDA:0,_ZN6QFlagsIN2Qt10WindowTypeEEC2EMNS2_7PrivateEi
DA:120,0
DA:121,0
DA:121,0
end_of_record
SF:/usr/include/x86_64-linux-gnu/qt5/QtCore/qbasicatomic.h
FN:103,_ZNK19QBasicAtomicIntegerIiE4loadEv
FNDA:0,_ZNK19QBasicAtomicIntegerIiE4loadEv
FN:114,_ZN19QBasicAtomicIntegerIiE3refEv
FNDA:0,_ZN19QBasicAtomicIntegerIiE3refEv
FN:115,_ZN19QBasicAtomicIntegerIiE5derefEv
FNDA:0,_ZN19QBasicAtomicIntegerIiE5derefEv
DA:103,0
DA:114,0
DA:115,0
end_of_record
SF:/home/user/Desktop/pobedi-me-ako-znas/application/resultdialog.cpp
FN:4,_ZN12ResultDialogC2EP7QWidget
FNDA:2,_ZN12ResultDialogC2EP7QWidget
FN:14,_ZN12ResultDialogD0Ev
FNDA:2,_ZN12ResultDialogD0Ev
FN:14,_ZN12ResultDialogD2Ev
FNDA:2,_ZN12ResultDialogD2Ev
FN:18,_ZN12ResultDialog11clearLayoutEP7QLayout
FNDA:2,_ZN12ResultDialog11clearLayoutEP7QLayout
FN:28,_ZN12ResultDialog11showResultsER7QString
FNDA:2,_ZN12ResultDialog11showResultsER7QString
FN:51,_ZN12ResultDialog16parseBestResultsER7QString
FNDA:2,_ZN12ResultDialog16parseBestResultsER7QString
DA:4,2
DA:6,2
DA:8,2
DA:9,2
DA:11,2
DA:12,2
DA:14,2
DA:16,2
DA:14,2
DA:16,2
DA:18,2
DA:21,2
DA:23,0
DA:24,0
DA:26,2
DA:28,2
DA:30,2
DA:32,4
DA:33,4
DA:34,2
DA:36,0
DA:37,0
DA:38,0
DA:39,0
DA:40,0
DA:43,2
DA:44,4
DA:45,2
DA:46,2
DA:48,2
DA:49,2
DA:51,2
DA:53,2
DA:55,2
DA:57,0
DA:58,0
DA:61,4
DA:63,4
DA:65,4
DA:67,4
DA:69,2
DA:71,0
DA:72,0
DA:73,0
DA:74,0
DA:75,0
DA:76,0
DA:78,0
DA:82,2
DA:86,2
end_of_record
SF:/usr/include/c++/9/bits/atomic_base.h
FN:99,_ZStanSt12memory_orderSt23__memory_order_modifier
FNDA:0,_ZStanSt12memory_orderSt23__memory_order_modifier
FN:318,_ZNSt13__atomic_baseIiEppEv
FNDA:0,_ZNSt13__atomic_baseIiEppEv
FN:326,_ZNSt13__atomic_baseIiEmmEv
FNDA:0,_ZNSt13__atomic_baseIiEmmEv
DA:99,0
DA:101,0
DA:318,0
DA:319,0
DA:326,0
DA:327,0
DA:415,0
DA:419,0
end_of_record
SF:/usr/include/x86_64-linux-gnu/qt5/QtCore/qchar.h
FN:53,_ZN11QLatin1CharC2Ec
FNDA:0,_ZN11QLatin1CharC2Ec
FN:55,_ZNK11QLatin1Char7unicodeEv
FNDA:0,_ZNK11QLatin1Char7unicodeEv
FN:88,_ZN5QCharC2E11QLatin1Char
FNDA:0,_ZN5QCharC2E11QLatin1Char
DA:53,0
DA:55,0
DA:88,0
end_of_record
SF:/home/user/Desktop/pobedi-me-ako-znas/application/resultdialog.h
end_of_record
SF:/usr/include/x86_64-linux-gnu/qt5/QtCore/qstring.h
FN:234,_ZN7QStringC2EOS_
FNDA:0,_ZN7QStringC2EOS_
FN:483,_ZN7QStringpLERKS_
FNDA:0,_ZN7QStringpLERKS_
FN:570,_ZN7QString8fromUtf8EPKci
FNDA:0,_ZN7QString8fromUtf8EPKci
FN:699,_ZN7QStringC2EPKc
FNDA:0,_ZN7QStringC2EPKc
FN:933,_ZNK7QString6lengthEv
FNDA:0,_ZNK7QString6lengthEv
FN:949,_ZNK7QString9constDataEv
FNDA:0,_ZNK7QString9constDataEv
FN:957,_ZN7QStringC2ERKS_
FNDA:0,_ZN7QStringC2ERKS_
FN:975,_ZNK7QString3argEiii5QChar
FNDA:0,_ZNK7QString3argEiii5QChar
FN:1134,_ZN7QStringC2Ev
FNDA:0,_ZN7QStringC2Ev
FN:1135,_ZN7QStringD2Ev
FNDA:0,_ZN7QStringD2Ev
DA:234,0
DA:483,0
DA:570,0
DA:572,0
DA:699,0
DA:700,0
DA:701,0
DA:933,0
DA:934,0
DA:949,0
DA:950,0
DA:957,0
DA:958,0
DA:975,0
DA:976,0
DA:1134,0
DA:1135,0
end_of_record
SF:/usr/include/x86_64-linux-gnu/qt5/QtCore/qarraydata.h
FN:57,_ZN10QArrayData4dataEv
FNDA:0,_ZN10QArrayData4dataEv
FN:123,_ZN10QArrayData10sharedNullEv
FNDA:0,_ZN10QArrayData10sharedNullEv
FN:208,_ZN15QTypedArrayDataIN12ResultDialog10GameResultEE4dataEv
FNDA:8,_ZN15QTypedArrayDataIN12ResultDialog10GameResultEE4dataEv
FN:208,_ZN15QTypedArrayDataItE4dataEv
FNDA:0,_ZN15QTypedArrayDataItE4dataEv
FN:211,_ZN15QTypedArrayDataIN12ResultDialog10GameResultEE5beginEPS1_
FNDA:4,_ZN15QTypedArrayDataIN12ResultDialog10GameResultEE5beginEPS1_
FN:212,_ZN15QTypedArrayDataIN12ResultDialog10GameResultEE3endEPS1_
FNDA:4,_ZN15QTypedArrayDataIN12ResultDialog10GameResultEE3endEPS1_
FN:220,_ZN15QTypedArrayDataIN12ResultDialog10GameResultEE8allocateEm6QFlagsIN10QArrayData16AllocationOptionEE
FNDA:2,_ZN15QTypedArrayDataIN12ResultDialog10GameResultEE8allocateEm6QFlagsIN10QArrayData16AllocationOptionEE
FN:236,_ZN15QTypedArrayDataIN12ResultDialog10GameResultEE10deallocateEP10QArrayData
FNDA:2,_ZN15QTypedArrayDataIN12ResultDialog10GameResultEE10deallocateEP10QArrayData
FN:236,_ZN15QTypedArrayDataItE10deallocateEP10QArrayData
FNDA:0,_ZN15QTypedArrayDataItE10deallocateEP10QArrayData
FN:257,_ZN15QTypedArrayDataIN12ResultDialog10GameResultEE10sharedNullEv
FNDA:2,_ZN15QTypedArrayDataIN12ResultDialog10GameResultEE10sharedNullEv
FN:257,_ZN15QTypedArrayDataItE10sharedNullEv
FNDA:0,_ZN15QTypedArrayDataItE10sharedNullEv
FN:270,_ZN15QTypedArrayDataIN12ResultDialog10GameResultEE15unsharableEmptyEv
FNDA:2,_ZN15QTypedArrayDataIN12ResultDialog10GameResultEE15unsharableEmptyEv
DA:57,0
DA:61,0
DA:123,0
DA:208,8
DA:208,0
DA:211,4
DA:212,4
DA:220,2
DA:224,2
DA:225,2
DA:236,2
DA:239,2
DA:240,2
DA:236,0
DA:239,0
DA:240,0
DA:257,2
DA:260,2
DA:257,0
DA:260,0
DA:270,2
DA:273,2
end_of_record
SF:/usr/include/x86_64-linux-gnu/qt5/QtCore/qstringlist.h
FN:69,_ZN19QListSpecialMethodsI7QStringED2Ev
FNDA:0,_ZN19QListSpecialMethodsI7QStringED2Ev
DA:69,0
end_of_record
SF:/usr/include/c++/9/iostream
end_of_record
SF:/usr/include/x86_64-linux-gnu/qt5/QtCore/qglobal.h
FN:911,_Z5qSwapIP16QDateTimePrivateEvRT_S3_
FNDA:0,_Z5qSwapIP16QDateTimePrivateEvRT_S3_
DA:911,0
DA:915,0
DA:916,0
end_of_record
SF:/usr/include/x86_64-linux-gnu/qt5/QtCore/qatomic_cxx11.h
FN:225,_ZN10QAtomicOpsIiE4loadIiEET_RKSt6atomicIS2_E
FNDA:0,_ZN10QAtomicOpsIiE4loadIiEET_RKSt6atomicIS2_E
FN:263,_ZN10QAtomicOpsIiE3refIiEEbRSt6atomicIT_E
FNDA:0,_ZN10QAtomicOpsIiE3refIiEEbRSt6atomicIT_E
FN:269,_ZN10QAtomicOpsIiE5derefIiEEbRSt6atomicIT_E
FNDA:0,_ZN10QAtomicOpsIiE5derefIiEEbRSt6atomicIT_E
DA:225,0
DA:227,0
DA:263,0
DA:265,0
DA:269,0
DA:271,0
end_of_record
SF:/usr/include/c++/9/new
FN:173,_ZnwmPv
FNDA:0,_ZnwmPv
DA:173,0
DA:174,0
end_of_record
SF:/usr/include/c++/9/bits/move.h
FN:99,_ZSt4moveIRN12ResultDialog10GameResultEEONSt16remove_referenceIT_E4typeEOS4_
FNDA:0,_ZSt4moveIRN12ResultDialog10GameResultEEONSt16remove_referenceIT_E4typeEOS4_
FN:99,_ZSt4moveIRP16QDateTimePrivateEONSt16remove_referenceIT_E4typeEOS4_
FNDA:0,_ZSt4moveIRP16QDateTimePrivateEONSt16remove_referenceIT_E4typeEOS4_
FN:182,_ZSt4swapIP16QDateTimePrivateENSt9enable_ifIXsrSt6__and_IJSt6__not_ISt15__is_tuple_likeIT_EESt21is_move_constructibleIS6_ESt18is_move_assignableIS6_EEE5valueEvE4typeERS6_SG_
FNDA:0,_ZSt4swapIP16QDateTimePrivateENSt9enable_ifIXsrSt6__and_IJSt6__not_ISt15__is_tuple_likeIT_EESt21is_move_constructibleIS6_ESt18is_move_assignableIS6_EEE5valueEvE4typeERS6_SG_
DA:99,0
DA:100,0
DA:99,0
DA:100,0
DA:182,0
DA:193,0
DA:194,0
DA:195,0
DA:196,0
end_of_record
SF:/usr/include/x86_64-linux-gnu/qt5/QtCore/qdebug.h
FN:125,_ZN6QDebug10maybeSpaceEv
FNDA:0,_ZN6QDebug10maybeSpaceEv
FN:153,_ZN6QDebuglsEPKc
FNDA:0,_ZN6QDebuglsEPKc
FN:155,_ZN6QDebuglsERK7QString
FNDA:0,_ZN6QDebuglsERK7QString
DA:125,0
DA:153,0
DA:155,0
end_of_record
TN:
SF:/usr/include/x86_64-linux-gnu/qt5/QtCore/qiodevice.h
FN:136,_ZN9QIODevice5writeERK10QByteArray
FNDA:0,_ZN9QIODevice5writeERK10QByteArray
DA:136,0
DA:137,0
end_of_record
SF:/usr/include/x86_64-linux-gnu/qt5/QtCore/qsize.h
FN:119,_ZN5QSizeC2Eii
FNDA:0,_ZN5QSizeC2Eii
FN:130,_ZNK5QSize5widthEv
FNDA:0,_ZNK5QSize5widthEv
FN:133,_ZNK5QSize6heightEv
FNDA:0,_ZNK5QSize6heightEv
DA:119,0
DA:130,0
DA:131,0
DA:133,0
DA:134,0
end_of_record
SF:/usr/include/c++/9/bits/move.h
FN:99,_ZSt4moveIRP15QPlatformPixmapEONSt16remove_referenceIT_E4typeEOS4_
FNDA:0,_ZSt4moveIRP15QPlatformPixmapEONSt16remove_referenceIT_E4typeEOS4_
FN:182,_ZSt4swapIP15QPlatformPixmapENSt9enable_ifIXsrSt6__and_IJSt6__not_ISt15__is_tuple_likeIT_EESt21is_move_constructibleIS6_ESt18is_move_assignableIS6_EEE5valueEvE4typeERS6_SG_
FNDA:0,_ZSt4swapIP15QPlatformPixmapENSt9enable_ifIXsrSt6__and_IJSt6__not_ISt15__is_tuple_likeIT_EESt21is_move_constructibleIS6_ESt18is_move_assignableIS6_EEE5valueEvE4typeERS6_SG_
DA:99,0
DA:100,0
DA:182,0
DA:193,0
DA:194,0
DA:195,0
DA:196,0
end_of_record
SF:/usr/include/x86_64-linux-gnu/qt5/QtCore/qdebug.h
FN:125,_ZN6QDebug10maybeSpaceEv
FNDA:0,_ZN6QDebug10maybeSpaceEv
FN:137,_ZN6QDebuglsEb
FNDA:0,_ZN6QDebuglsEb
FN:153,_ZN6QDebuglsEPKc
FNDA:0,_ZN6QDebuglsEPKc
FN:155,_ZN6QDebuglsERK7QString
FNDA:0,_ZN6QDebuglsERK7QString
DA:125,0
DA:137,0
DA:153,0
DA:155,0
end_of_record
SF:/usr/include/c++/9/new
FN:173,_ZnwmPv
FNDA:0,_ZnwmPv
DA:173,0
DA:174,0
end_of_record
SF:/usr/include/c++/9/atomic
FN:759,_ZNSt6atomicIiEC2Ei
FNDA:0,_ZNSt6atomicIiEC2Ei
DA:759,0
end_of_record
SF:/usr/include/x86_64-linux-gnu/qt5/QtWidgets/qwidget.h
FN:787,_ZN7QWidget14setMinimumSizeERK5QSize
FNDA:0,_ZN7QWidget14setMinimumSizeERK5QSize
FN:790,_ZN7QWidget14setMaximumSizeERK5QSize
FNDA:0,_ZN7QWidget14setMaximumSizeERK5QSize
FN:838,_ZN7QWidget6resizeEii
FNDA:0,_ZN7QWidget6resizeEii
FN:850,_ZNK7QWidget4sizeEv
FNDA:0,_ZNK7QWidget4sizeEv
DA:787,0
DA:788,0
DA:790,0
DA:791,0
DA:838,0
DA:839,0
DA:850,0
DA:851,0
end_of_record
SF:/usr/include/x86_64-linux-gnu/qt5/QtGui/qfont.h
FN:341,_ZN5QFont7setBoldEb
FNDA:0,_ZN5QFont7setBoldEb
FN:349,_ZN5QFont9setItalicEb
FNDA:0,_ZN5QFont9setItalicEb
DA:341,0
DA:342,0
DA:349,0
DA:350,0
DA:351,0
end_of_record
SF:/usr/include/x86_64-linux-gnu/qt5/QtGui/qpixmap.h
FN:77,_ZN7QPixmapaSEOS_
FNDA:0,_ZN7QPixmapaSEOS_
DA:77,0
DA:78,0
end_of_record
SF:/usr/include/x86_64-linux-gnu/qt5/QtCore/qglobal.h
FN:911,_Z5qSwapIP15QPlatformPixmapEvRT_S3_
FNDA:0,_Z5qSwapIP15QPlatformPixmapEvRT_S3_
DA:911,0
DA:915,0
DA:916,0
end_of_record
SF:/usr/include/x86_64-linux-gnu/qt5/QtCore/qatomic_cxx11.h
FN:225,_ZN10QAtomicOpsIiE4loadIiEET_RKSt6atomicIS2_E
FNDA:0,_ZN10QAtomicOpsIiE4loadIiEET_RKSt6atomicIS2_E
FN:263,_ZN10QAtomicOpsIiE3refIiEEbRSt6atomicIT_E
FNDA:0,_ZN10QAtomicOpsIiE3refIiEEbRSt6atomicIT_E
FN:269,_ZN10QAtomicOpsIiE5derefIiEEbRSt6atomicIT_E
FNDA:0,_ZN10QAtomicOpsIiE5derefIiEEbRSt6atomicIT_E
DA:225,0
DA:227,0
DA:263,0
DA:265,0
DA:269,0
DA:271,0
end_of_record
SF:/usr/include/x86_64-linux-gnu/qt5/QtGui/qpalette.h
FN:200,_ZN8QPalette8setBrushENS_9ColorRoleERK6QBrush
FNDA:0,_ZN8QPalette8setBrushENS_9ColorRoleERK6QBrush
DA:200,0
DA:201,0
end_of_record
SF:/usr/include/x86_64-linux-gnu/qt5/QtGui/qpainter.h
FN:788,_ZN8QPainter10drawPixmapERK5QRectRK7QPixmapS2_
FNDA:10,_ZN8QPainter10drawPixmapERK5QRectRK7QPixmapS2_
DA:788,10
DA:790,10
DA:791,10
end_of_record
SF:/usr/include/x86_64-linux-gnu/qt5/QtCore/qchar.h
FN:86,_ZN5QCharC2Ei
FNDA:0,_ZN5QCharC2Ei
DA:86,0
end_of_record
SF:/usr/include/x86_64-linux-gnu/qt5/QtCore/qstring.h
FN:428,_ZNO7QString7toLowerEv
FNDA:2,_ZNO7QString7toLowerEv
FN:440,_ZNO7QString7trimmedEv
FNDA:2,_ZNO7QString7trimmedEv
FN:483,_ZN7QStringpLERKS_
FNDA:0,_ZN7QStringpLERKS_
FN:549,_ZNKR7QString6toUtf8Ev
FNDA:0,_ZNKR7QString6toUtf8Ev
FN:570,_ZN7QString8fromUtf8EPKci
FNDA:0,_ZN7QString8fromUtf8EPKci
FN:580,_ZN7QString8fromUtf8ERK10QByteArray
FNDA:0,_ZN7QString8fromUtf8ERK10QByteArray
FN:699,_ZN7QStringC2EPKc
FNDA:0,_ZN7QStringC2EPKc
FN:933,_ZNK7QString6lengthEv
FNDA:0,_ZNK7QString6lengthEv
FN:941,_ZNK7QString7isEmptyEv
FNDA:0,_ZNK7QString7isEmptyEv
FN:949,_ZNK7QString9constDataEv
FNDA:0,_ZNK7QString9constDataEv
FN:957,_ZN7QStringC2ERKS_
FNDA:0,_ZN7QStringC2ERKS_
FN:1134,_ZN7QStringC2Ev
FNDA:0,_ZN7QStringC2Ev
FN:1135,_ZN7QStringD2Ev
FNDA:0,_ZN7QStringD2Ev
FN:1356,_ZplRK7QStringPKc
FNDA:0,_ZplRK7QStringPKc
FN:1358,_ZplPKcRK7QString
FNDA:0,_ZplPKcRK7QString
DA:428,2
DA:429,2
DA:440,2
DA:441,2
DA:483,0
DA:549,0
DA:550,0
DA:570,0
DA:572,0
DA:580,0
DA:581,0
DA:699,0
DA:700,0
DA:701,0
DA:933,0
DA:934,0
DA:941,0
DA:942,0
DA:949,0
DA:950,0
DA:957,0
DA:958,0
DA:1134,0
DA:1135,0
DA:1356,0
DA:1357,0
DA:1358,0
DA:1359,0
end_of_record
SF:/usr/include/x86_64-linux-gnu/qt5/QtCore/qtimer.h
FN:108,_ZN6QTimer10singleShotIiM10QEventLoopFvvEEEvT_PKN9QtPrivate15FunctionPointerIT0_E6ObjectES7_
FNDA:28,_ZN6QTimer10singleShotIiM10QEventLoopFvvEEEvT_PKN9QtPrivate15FunctionPointerIT0_E6ObjectES7_
FN:113,_ZN6QTimer10singleShotIiM10QEventLoopFvvEEEvT_N2Qt9TimerTypeEPKN9QtPrivate15FunctionPointerIT0_E6ObjectES9_
FNDA:28,_ZN6QTimer10singleShotIiM10QEventLoopFvvEEEvT_N2Qt9TimerTypeEPKN9QtPrivate15FunctionPointerIT0_E6ObjectES9_
FN:221,_ZN6QTimer14defaultTypeForEi
FNDA:33,_ZN6QTimer14defaultTypeForEi
DA:108,28
DA:110,28
DA:111,28
DA:113,28
DA:122,28
DA:123,28
DA:124,28
DA:221,33
DA:222,33
end_of_record
SF:/usr/include/x86_64-linux-gnu/qt5/QtCore/qbytearray.h
FN:76,_Z8qstrnlenPKcj
FNDA:0,_Z8qstrnlenPKcj
FN:476,_ZN10QByteArrayD2Ev
FNDA:0,_ZN10QByteArrayD2Ev
FN:477,_ZNK10QByteArray4sizeEv
FNDA:0,_ZNK10QByteArray4sizeEv
FN:497,_ZNK10QByteArray4dataEv
FNDA:0,_ZNK10QByteArray4dataEv
FN:499,_ZNK10QByteArray9constDataEv
FNDA:0,_ZNK10QByteArray9constDataEv
DA:76,0
DA:78,0
DA:79,0
DA:80,0
DA:81,0
DA:83,0
DA:476,0
DA:477,0
DA:478,0
DA:497,0
DA:498,0
DA:499,0
DA:500,0
end_of_record
SF:/usr/include/x86_64-linux-gnu/qt5/QtCore/qrect.h
FN:184,_ZN5QRectC2Eiiii
FNDA:0,_ZN5QRectC2Eiiii
FN:214,_ZNK5QRect1xEv
FNDA:20,_ZNK5QRect1xEv
FN:217,_ZNK5QRect1yEv
FNDA:20,_ZNK5QRect1yEv
FN:265,_ZNK5QRect5widthEv
FNDA:0,_ZNK5QRect5widthEv
FN:268,_ZNK5QRect6heightEv
FNDA:0,_ZNK5QRect6heightEv
FN:271,_ZNK5QRect4sizeEv
FNDA:0,_ZNK5QRect4sizeEv
FN:660,_ZN6QRectFC2ERK5QRect
FNDA:20,_ZN6QRectFC2ERK5QRect
DA:184,0
DA:185,0
DA:214,20
DA:215,20
DA:217,20
DA:218,20
DA:265,0
DA:266,0
DA:268,0
DA:269,0
DA:271,0
DA:272,0
DA:660,20
DA:661,20
DA:663,20
end_of_record
SF:/usr/include/x86_64-linux-gnu/qt5/QtGui/qcolor.h
FN:286,_ZN6QColorC2Eiiii
FNDA:0,_ZN6QColorC2Eiiii
DA:286,0
DA:287,0
end_of_record
SF:/usr/include/x86_64-linux-gnu/qt5/QtCore/qstringlist.h
FN:69,_ZN19QListSpecialMethodsI7QStringED2Ev
FNDA:0,_ZN19QListSpecialMethodsI7QStringED2Ev
DA:69,0
end_of_record
SF:/usr/include/x86_64-linux-gnu/qt5/QtCore/qarraydata.h
FN:57,_ZN10QArrayData4dataEv
FNDA:0,_ZN10QArrayData4dataEv
FN:123,_ZN10QArrayData10sharedNullEv
FNDA:0,_ZN10QArrayData10sharedNullEv
FN:208,_ZN15QTypedArrayDataItE4dataEv
FNDA:0,_ZN15QTypedArrayDataItE4dataEv
FN:208,_ZN15QTypedArrayDataIcE4dataEv
FNDA:0,_ZN15QTypedArrayDataIcE4dataEv
FN:236,_ZN15QTypedArrayDataItE10deallocateEP10QArrayData
FNDA:0,_ZN15QTypedArrayDataItE10deallocateEP10QArrayData
FN:236,_ZN15QTypedArrayDataIcE10deallocateEP10QArrayData
FNDA:0,_ZN15QTypedArrayDataIcE10deallocateEP10QArrayData
FN:257,_ZN15QTypedArrayDataItE10sharedNullEv
FNDA:0,_ZN15QTypedArrayDataItE10sharedNullEv
DA:57,0
DA:61,0
DA:123,0
DA:208,0
DA:208,0
DA:236,0
DA:239,0
DA:240,0
DA:236,0
DA:239,0
DA:240,0
DA:257,0
DA:260,0
end_of_record
SF:/usr/include/c++/9/bits/atomic_base.h
FN:99,_ZStanSt12memory_orderSt23__memory_order_modifier
FNDA:0,_ZStanSt12memory_orderSt23__memory_order_modifier
FN:279,_ZNSt13__atomic_baseIiEC2Ei
FNDA:0,_ZNSt13__atomic_baseIiEC2Ei
FN:318,_ZNSt13__atomic_baseIiEppEv
FNDA:0,_ZNSt13__atomic_baseIiEppEv
FN:326,_ZNSt13__atomic_baseIiEmmEv
FNDA:0,_ZNSt13__atomic_baseIiEmmEv
DA:99,0
DA:101,0
DA:279,0
DA:318,0
DA:319,0
DA:326,0
DA:327,0
DA:415,0
DA:419,0
end_of_record
SF:/home/user/Desktop/pobedi-me-ako-znas/application/pogodistaui.h
end_of_record
SF:/usr/include/x86_64-linux-gnu/qt5/QtCore/qobject_impl.h
FN:71,_ZN9QtPrivate15ConnectionTypesINS_4ListIJN6QTimer14QPrivateSignalEEEELb0EE5typesEv
FNDA:0,_ZN9QtPrivate15ConnectionTypesINS_4ListIJN6QTimer14QPrivateSignalEEEELb0EE5typesEv
FN:73,_ZN9QtPrivate15ConnectionTypesINS_4ListIJEEELb1EE5typesEv
FNDA:0,_ZN9QtPrivate15ConnectionTypesINS_4ListIJEEELb1EE5typesEv
DA:71,0
DA:73,0
end_of_record
SF:/usr/include/x86_64-linux-gnu/qt5/QtCore/qbasicatomic.h
FN:103,_ZNK19QBasicAtomicIntegerIiE4loadEv
FNDA:0,_ZNK19QBasicAtomicIntegerIiE4loadEv
FN:114,_ZN19QBasicAtomicIntegerIiE3refEv
FNDA:0,_ZN19QBasicAtomicIntegerIiE3refEv
FN:115,_ZN19QBasicAtomicIntegerIiE5derefEv
FNDA:0,_ZN19QBasicAtomicIntegerIiE5derefEv
FN:221,_ZN19QBasicAtomicIntegerIiEC2Ei
FNDA:0,_ZN19QBasicAtomicIntegerIiEC2Ei
DA:103,0
DA:114,0
DA:115,0
DA:221,0
end_of_record
SF:/usr/include/x86_64-linux-gnu/qt5/QtCore/qobjectdefs_impl.h
FN:88,_ZN9QtPrivate16ApplyReturnValueIvEC2EPv
FNDA:0,_ZN9QtPrivate16ApplyReturnValueIvEC2EPv
FN:151,_ZN9QtPrivate11FunctorCallINS_11IndexesListIJEEENS_4ListIJEEEvM10QEventLoopFvvEE4callES7_PS5_PPv
FNDA:28,_ZN9QtPrivate11FunctorCallINS_11IndexesListIJEEENS_4ListIJEEEvM10QEventLoopFvvEE4callES7_PS5_PPv
FN:151,_ZN9QtPrivate11FunctorCallINS_11IndexesListIJEEENS_4ListIJEEEvM11PogodiStaUIFvvEE4callES7_PS5_PPv
FNDA:148,_ZN9QtPrivate11FunctorCallINS_11IndexesListIJEEENS_4ListIJEEEvM11PogodiStaUIFvvEE4callES7_PS5_PPv
FN:184,_ZN9QtPrivate15FunctionPointerIM10QEventLoopFvvEE4callINS_4ListIJEEEvEEvS3_PS1_PPv
FNDA:28,_ZN9QtPrivate15FunctionPointerIM10QEventLoopFvvEE4callINS_4ListIJEEEvEEvS3_PS1_PPv
FN:184,_ZN9QtPrivate15FunctionPointerIM11PogodiStaUIFvvEE4callINS_4ListIJEEEvEEvS3_PS1_PPv
FNDA:148,_ZN9QtPrivate15FunctionPointerIM11PogodiStaUIFvvEE4callINS_4ListIJEEEvEEvS3_PS1_PPv
FN:387,_ZN9QtPrivate15QSlotObjectBaseC2EPFviPS0_P7QObjectPPvPbE
FNDA:0,_ZN9QtPrivate15QSlotObjectBaseC2EPFviPS0_P7QObjectPPvPbE
FN:396,_ZN9QtPrivate15QSlotObjectBaseD2Ev
FNDA:0,_ZN9QtPrivate15QSlotObjectBaseD2Ev
FN:407,_ZN9QtPrivate11QSlotObjectIM10QEventLoopFvvENS_4ListIJEEEvE4implEiPNS_15QSlotObjectBaseEP7QObjectPPvPb
FNDA:56,_ZN9QtPrivate11QSlotObjectIM10QEventLoopFvvENS_4ListIJEEEvE4implEiPNS_15QSlotObjectBaseEP7QObjectPPvPb
FN:407,_ZN9QtPrivate11QSlotObjectIM11PogodiStaUIFvvENS_4ListIJEEEvE4implEiPNS_15QSlotObjectBaseEP7QObjectPPvPb
FNDA:162,_ZN9QtPrivate11QSlotObjectIM11PogodiStaUIFvvENS_4ListIJEEEvE4implEiPNS_15QSlotObjectBaseEP7QObjectPPvPb
FN:423,_ZN9QtPrivate11QSlotObjectIM10QEventLoopFvvENS_4ListIJEEEvEC2ES3_
FNDA:28,_ZN9QtPrivate11QSlotObjectIM10QEventLoopFvvENS_4ListIJEEEvEC2ES3_
FN:423,_ZN9QtPrivate11QSlotObjectIM11PogodiStaUIFvvENS_4ListIJEEEvEC2ES3_
FNDA:8,_ZN9QtPrivate11QSlotObjectIM11PogodiStaUIFvvENS_4ListIJEEEvEC2ES3_
DA:88,0
DA:151,28
DA:152,28
DA:153,28
DA:151,148
DA:152,148
DA:153,148
DA:184,28
DA:185,28
DA:186,28
DA:184,148
DA:185,148
DA:186,148
DA:387,0
DA:396,0
DA:407,56
DA:409,56
DA:410,28
DA:411,28
DA:412,28
DA:413,28
DA:414,28
DA:415,28
DA:416,0
DA:417,0
DA:418,0
DA:419,56
DA:421,56
DA:407,162
DA:409,162
DA:410,8
DA:411,8
DA:412,8
DA:413,148
DA:414,148
DA:415,148
DA:416,6
DA:417,6
DA:418,6
DA:419,162
DA:421,162
DA:423,28
DA:423,8
end_of_record
SF:/home/user/Desktop/pobedi-me-ako-znas/build/application/application_autogen/include/ui_pogodistaui.h
FN:38,_ZN14Ui_PogodiStaUI7setupUiEP7QWidget
FNDA:2,_ZN14Ui_PogodiStaUI7setupUiEP7QWidget
FN:181,_ZN14Ui_PogodiStaUI13retranslateUiEP7QWidget
FNDA:2,_ZN14Ui_PogodiStaUI13retranslateUiEP7QWidget
DA:38,2
DA:40,2
DA:41,2
DA:42,2
DA:43,2
DA:44,2
DA:45,2
DA:46,2
DA:47,2
DA:48,2
DA:49,2
DA:50,2
DA:51,2
DA:52,2
DA:53,2
DA:54,4
DA:55,4
DA:56,2
DA:57,2
DA:58,4
DA:59,2
DA:60,2
DA:61,2
DA:62,4
DA:63,2
DA:65,2
DA:67,2
DA:68,2
DA:69,2
DA:71,2
DA:73,2
DA:74,2
DA:75,2
DA:77,2
DA:79,2
DA:80,4
DA:81,2
DA:82,2
DA:83,2
DA:84,2
DA:85,2
DA:86,2
DA:87,2
DA:88,2
DA:89,2
DA:90,2
DA:91,2
DA:92,4
DA:93,4
DA:94,2
DA:95,2
DA:96,2
DA:97,2
DA:98,4
DA:99,2
DA:101,2
DA:103,2
DA:104,2
DA:105,2
DA:107,2
DA:109,2
DA:110,2
DA:111,2
DA:113,2
DA:115,2
DA:116,4
DA:117,2
DA:118,2
DA:119,2
DA:120,2
DA:121,2
DA:122,2
DA:123,2
DA:124,2
DA:125,2
DA:126,2
DA:127,2
DA:128,2
DA:129,2
DA:130,2
DA:131,2
DA:132,2
DA:133,2
DA:134,2
DA:135,2
DA:136,2
DA:137,4
DA:138,2
DA:139,2
DA:140,2
DA:141,2
DA:143,2
DA:144,2
DA:146,2
DA:148,2
DA:149,2
DA:151,2
DA:153,2
DA:154,2
DA:155,2
DA:156,2
DA:157,2
DA:158,2
DA:159,2
DA:160,2
DA:161,2
DA:162,2
DA:163,2
DA:165,2
DA:166,2
DA:168,2
DA:170,2
DA:171,2
DA:173,2
DA:176,2
DA:178,2
DA:179,2
DA:181,2
DA:183,2
DA:184,2
DA:185,2
DA:186,2
DA:187,2
end_of_record
SF:/usr/include/x86_64-linux-gnu/qt5/QtCore/qatomic.h
FN:60,_ZN14QAtomicIntegerIiEC2Ei
FNDA:0,_ZN14QAtomicIntegerIiEC2Ei
FN:162,_ZN10QAtomicIntC2Ei
FNDA:0,_ZN10QAtomicIntC2Ei
DA:60,0
DA:162,0
end_of_record
SF:/usr/include/x86_64-linux-gnu/qt5/QtCore/qlist.h
FN:100,_ZN9QListData7disposeEv
FNDA:0,_ZN9QListData7disposeEv
FN:113,_ZNK9QListData4sizeEv
FNDA:0,_ZNK9QListData4sizeEv
FN:115,_ZNK9QListData2atEi
FNDA:0,_ZNK9QListData2atEi
FN:116,_ZNK9QListData5beginEv
FNDA:0,_ZNK9QListData5beginEv
FN:117,_ZNK9QListData3endEv
FNDA:0,_ZNK9QListData3endEv
FN:142,_ZN5QListI7QStringE4Node1tEv
FNDA:0,_ZN5QListI7QStringE4Node1tEv
FN:156,_ZN5QListI7QStringEC2EOS1_
FNDA:0,_ZN5QListI7QStringEC2EOS1_
FN:170,_ZNK5QListI7QStringE4sizeEv
FNDA:0,_ZNK5QListI7QStringE4sizeEv
FN:172,_ZN5QListI7QStringE6detachEv
FNDA:0,_ZN5QListI7QStringE6detachEv
FN:235,_ZN5QListI7QStringE8iteratorC2EPNS1_4NodeE
FNDA:0,_ZN5QListI7QStringE8iteratorC2EPNS1_4NodeE
FN:241,_ZNK5QListI7QStringE8iteratordeEv
FNDA:0,_ZNK5QListI7QStringE8iteratordeEv
FN:245,_ZNK5QListI7QStringE8iteratorneERKS2_
FNDA:0,_ZNK5QListI7QStringE8iteratorneERKS2_
FN:264,_ZN5QListI7QStringE8iteratorppEv
FNDA:0,_ZN5QListI7QStringE8iteratorppEv
FN:324,_ZN5QListI7QStringE5beginEv
FNDA:0,_ZN5QListI7QStringE5beginEv
FN:328,_ZN5QListI7QStringE3endEv
FNDA:0,_ZN5QListI7QStringE3endEv
FN:459,_ZN5QListI7QStringE9node_copyEPNS1_4NodeES3_S3_
FNDA:0,_ZN5QListI7QStringE9node_copyEPNS1_4NodeES3_S3_
FN:494,_ZN5QListI7QStringE13node_destructEPNS1_4NodeES3_
FNDA:0,_ZN5QListI7QStringE13node_destructEPNS1_4NodeES3_
FN:551,_ZN5QListI7QStringEixEi
FNDA:0,_ZN5QListI7QStringEixEi
FN:786,_ZN5QListI7QStringE13detach_helperEi
FNDA:0,_ZN5QListI7QStringE13detach_helperEi
FN:803,_ZN5QListI7QStringE13detach_helperEv
FNDA:0,_ZN5QListI7QStringE13detach_helperEv
FN:827,_ZN5QListI7QStringED2Ev
FNDA:0,_ZN5QListI7QStringED2Ev
FN:866,_ZN5QListI7QStringE7deallocEPN9QListData4DataE
FNDA:0,_ZN5QListI7QStringE7deallocEPN9QListData4DataE
DA:100,0
DA:113,0
DA:115,0
DA:116,0
DA:117,0
DA:142,0
DA:144,0
DA:156,0
DA:157,0
DA:170,0
DA:172,0
DA:235,0
DA:241,0
DA:245,0
DA:264,0
DA:324,0
DA:328,0
DA:459,0
DA:461,0
DA:477,0
DA:478,0
DA:479,0
DA:480,0
DA:491,0
DA:494,0
DA:499,0
DA:500,0
DA:551,0
DA:553,0
DA:786,0
DA:788,0
DA:789,0
DA:791,0
DA:792,0
DA:793,0
DA:794,0
DA:795,0
DA:798,0
DA:799,0
DA:800,0
DA:803,0
DA:805,0
DA:806,0
DA:827,0
DA:829,0
DA:830,0
DA:831,0
DA:866,0
DA:868,0
DA:869,0
DA:870,0
DA:871,0
end_of_record
SF:/usr/include/x86_64-linux-gnu/qt5/QtCore/qflags.h
FN:120,_ZN6QFlagsIN10QEventLoop17ProcessEventsFlagEEC2ES1_
FNDA:0,_ZN6QFlagsIN10QEventLoop17ProcessEventsFlagEEC2ES1_
FN:120,_ZN6QFlagsIN2Qt19ImageConversionFlagEEC2ES1_
FNDA:0,_ZN6QFlagsIN2Qt19ImageConversionFlagEEC2ES1_
FN:120,_ZN6QFlagsIN2Qt13AlignmentFlagEEC2ES1_
FNDA:0,_ZN6QFlagsIN2Qt13AlignmentFlagEEC2ES1_
FN:121,_ZN6QFlagsIN2Qt13AlignmentFlagEEC2EMNS2_7PrivateEi
FNDA:0,_ZN6QFlagsIN2Qt13AlignmentFlagEEC2EMNS2_7PrivateEi
FN:121,_ZN6QFlagsIN2Qt10WindowTypeEEC2EMNS2_7PrivateEi
FNDA:0,_ZN6QFlagsIN2Qt10WindowTypeEEC2EMNS2_7PrivateEi
DA:120,0
DA:120,0
DA:120,0
DA:121,0
DA:121,0
end_of_record
SF:/usr/include/x86_64-linux-gnu/qt5/QtCore/qshareddata.h
FN:233,_ZN28QExplicitlySharedDataPointerI15QPlatformPixmapE4swapERS1_
FNDA:0,_ZN28QExplicitlySharedDataPointerI15QPlatformPixmapE4swapERS1_
FN:304,_Z5qSwapI15QPlatformPixmapEvR28QExplicitlySharedDataPointerIT_ES4_
FNDA:0,_Z5qSwapI15QPlatformPixmapEvR28QExplicitlySharedDataPointerIT_ES4_
DA:233,0
DA:234,0
DA:304,0
DA:305,0
end_of_record
SF:/home/user/Desktop/pobedi-me-ako-znas/application/pogodistaui.cpp
FN:4,_ZN11PogodiStaUIC2EP7QWidget
FNDA:0,_ZN11PogodiStaUIC2EP7QWidget
FN:14,_ZN11PogodiStaUIC2EP7QWidgetP10QTcpSocket7QStringS4_biii
FNDA:2,_ZN11PogodiStaUIC2EP7QWidgetP10QTcpSocket7QStringS4_biii
FN:49,_ZN11PogodiStaUI5getUiEv
FNDA:0,_ZN11PogodiStaUI5getUiEv
FN:54,_ZN11PogodiStaUI7getTimeEv
FNDA:0,_ZN11PogodiStaUI7getTimeEv
FN:59,_ZN11PogodiStaUI10getPlayer1Ev
FNDA:0,_ZN11PogodiStaUI10getPlayer1Ev
FN:64,_ZN11PogodiStaUI10getPlayer2Ev
FNDA:0,_ZN11PogodiStaUI10getPlayer2Ev
FN:69,_ZN11PogodiStaUI10setPlayer1E7QString
FNDA:0,_ZN11PogodiStaUI10setPlayer1E7QString
FN:74,_ZN11PogodiStaUI10setPlayer2E7QString
FNDA:0,_ZN11PogodiStaUI10setPlayer2E7QString
FN:79,_ZN11PogodiStaUI16setPlayer1PointsEi
FNDA:0,_ZN11PogodiStaUI16setPlayer1PointsEi
FN:84,_ZN11PogodiStaUI16setPlayer2PointsEi
FNDA:0,_ZN11PogodiStaUI16setPlayer2PointsEi
FN:89,_ZN11PogodiStaUI14getRoundNumberEv
FNDA:0,_ZN11PogodiStaUI14getRoundNumberEv
FN:94,_ZN11PogodiStaUI12getPixelSizeEv
FNDA:0,_ZN11PogodiStaUI12getPixelSizeEv
FN:99,_ZN11PogodiStaUID0Ev
FNDA:2,_ZN11PogodiStaUID0Ev
FN:99,_ZN11PogodiStaUID2Ev
FNDA:2,_ZN11PogodiStaUID2Ev
FN:104,_ZN11PogodiStaUI9startGameEv
FNDA:4,_ZN11PogodiStaUI9startGameEv
FN:119,_ZN11PogodiStaUI11updateTimerEv
FNDA:134,_ZN11PogodiStaUI11updateTimerEv
FN:157,_ZN11PogodiStaUI13onGuessSubmitEv
FNDA:2,_ZN11PogodiStaUI13onGuessSubmitEv
FN:180,_ZN11PogodiStaUI11on_gameEndsEv
FNDA:4,_ZN11PogodiStaUI11on_gameEndsEv
FN:195,_ZN11PogodiStaUI11onReadyReadEv
FNDA:8,_ZN11PogodiStaUI11onReadyReadEv
FN:211,_ZN11PogodiStaUI13setBackgroundEv
FNDA:2,_ZN11PogodiStaUI13setBackgroundEv
FN:222,_ZN11PogodiStaUI13pixelateImageE7QPixmapi
FNDA:10,_ZN11PogodiStaUI13pixelateImageE7QPixmapi
FN:244,_ZN11PogodiStaUI5sleepEi
FNDA:28,_ZN11PogodiStaUI5sleepEi
FN:251,_ZN11PogodiStaUI11sendMessageEP10QTcpSocket7QString
FNDA:8,_ZN11PogodiStaUI11sendMessageEP10QTcpSocket7QString
FN:258,_ZN11PogodiStaUI20processServerMessageE7QString
FNDA:8,_ZN11PogodiStaUI20processServerMessageE7QString
FN:309,_ZN11PogodiStaUI12showSolutionEv
FNDA:4,_ZN11PogodiStaUI12showSolutionEv
FN:316,_ZN11PogodiStaUI13generateImageEv
FNDA:4,_ZN11PogodiStaUI13generateImageEv
FN:321,_ZN11PogodiStaUI16getPlayer1PointsEv
FNDA:4,_ZN11PogodiStaUI16getPlayer1PointsEv
FN:326,_ZN11PogodiStaUI16getPlayer2PointsEv
FNDA:4,_ZN11PogodiStaUI16getPlayer2PointsEv
DA:4,0
DA:5,0
DA:7,0
DA:8,0
DA:9,0
DA:10,0
DA:11,0
DA:12,0
DA:14,2
DA:15,2
DA:16,2
DA:18,2
DA:19,2
DA:20,2
DA:21,2
DA:23,2
DA:25,1
DA:26,1
DA:30,1
DA:31,1
DA:33,2
DA:34,2
DA:36,2
DA:38,2
DA:39,2
DA:40,2
DA:42,2
DA:43,2
DA:44,2
DA:46,2
DA:47,2
DA:49,0
DA:51,0
DA:54,0
DA:56,0
DA:59,0
DA:61,0
DA:64,0
DA:66,0
DA:69,0
DA:71,0
DA:72,0
DA:74,0
DA:76,0
DA:77,0
DA:79,0
DA:81,0
DA:82,0
DA:84,0
DA:86,0
DA:87,0
DA:89,0
DA:91,0
DA:94,0
DA:96,0
DA:99,2
DA:102,2
DA:99,2
DA:101,2
DA:102,2
DA:104,4
DA:106,4
DA:107,4
DA:108,4
DA:109,4
DA:110,4
DA:112,2
DA:114,4
DA:115,4
DA:116,4
DA:117,4
DA:119,134
DA:121,134
DA:122,134
DA:124,2
DA:125,2
DA:126,2
DA:127,2
DA:129,132
DA:131,12
DA:132,12
DA:133,12
DA:134,12
DA:135,12
DA:137,2
DA:141,10
DA:142,10
DA:143,10
DA:145,12
DA:146,12
DA:147,12
DA:148,12
DA:149,12
DA:150,12
DA:151,12
DA:154,134
DA:155,134
DA:157,2
DA:159,2
DA:160,2
DA:161,6
DA:163,2
DA:165,2
DA:169,0
DA:171,0
DA:172,0
DA:173,0
DA:174,0
DA:175,0
DA:178,2
DA:180,4
DA:182,4
DA:184,2
DA:186,2
DA:190,2
DA:191,2
DA:193,4
DA:195,8
DA:197,16
DA:198,16
DA:199,8
DA:200,16
DA:202,24
DA:204,16
DA:206,8
DA:209,8
DA:211,2
DA:213,4
DA:214,2
DA:215,4
DA:216,2
DA:217,2
DA:218,2
DA:219,2
DA:220,2
DA:222,10
DA:224,10
DA:225,20
DA:226,10
DA:227,10
DA:228,10
DA:230,280
DA:232,14320
DA:234,14050
DA:235,14050
DA:236,14050
DA:240,10
DA:241,20
DA:244,28
DA:246,28
DA:247,28
DA:248,28
DA:249,28
DA:251,8
DA:253,8
DA:254,8
DA:255,8
DA:256,8
DA:258,8
DA:260,8
DA:262,8
DA:263,8
DA:264,4
DA:265,4
DA:266,4
DA:268,4
DA:269,4
DA:270,4
DA:271,4
DA:273,4
DA:275,4
DA:277,2
DA:278,2
DA:279,4
DA:280,2
DA:281,2
DA:283,2
DA:287,0
DA:289,2
DA:290,2
DA:291,2
DA:293,2
DA:295,2
DA:297,2
DA:298,2
DA:299,2
DA:300,2
DA:301,2
DA:305,0
DA:307,8
DA:309,4
DA:311,4
DA:312,4
DA:313,4
DA:314,4
DA:316,4
DA:318,4
DA:319,4
DA:321,4
DA:323,4
DA:326,4
DA:328,4
end_of_record
SF:/usr/include/x86_64-linux-gnu/qt5/QtCore/qlogging.h
FN:68,_ZN18QMessageLogContextC2EPKciS1_S1_
FNDA:0,_ZN18QMessageLogContextC2EPKciS1_S1_
FN:91,_ZN14QMessageLoggerC2EPKciS1_
FNDA:0,_ZN14QMessageLoggerC2EPKciS1_
DA:68,0
DA:69,0
DA:91,0
DA:92,0
end_of_record
SF:/usr/include/x86_64-linux-gnu/qt5/QtCore/qobject.h
FN:228,_ZN7QObject7connectIM9QLineEditFvvEM11PogodiStaUIFvvEEEN11QMetaObject10ConnectionEPKN9QtPrivate15FunctionPointerIT_E6ObjectESB_PKNSA_IT0_E6ObjectESG_N2Qt14ConnectionTypeE
FNDA:2,_ZN7QObject7connectIM9QLineEditFvvEM11PogodiStaUIFvvEEEN11QMetaObject10ConnectionEPKN9QtPrivate15FunctionPointerIT_E6ObjectESB_PKNSA_IT0_E6ObjectESG_N2Qt14ConnectionTypeE
FN:228,_ZN7QObject7connectIM11PogodiStaUIFvvES3_EEN11QMetaObject10ConnectionEPKN9QtPrivate15FunctionPointerIT_E6ObjectES8_PKNS7_IT0_E6ObjectESD_N2Qt14ConnectionTypeE
FNDA:2,_ZN7QObject7connectIM11PogodiStaUIFvvES3_EEN11QMetaObject10ConnectionEPKN9QtPrivate15FunctionPointerIT_E6ObjectES8_PKNS7_IT0_E6ObjectESD_N2Qt14ConnectionTypeE
FN:228,_ZN7QObject7connectIM9QIODeviceFvvEM11PogodiStaUIFvvEEEN11QMetaObject10ConnectionEPKN9QtPrivate15FunctionPointerIT_E6ObjectESB_PKNSA_IT0_E6ObjectESG_N2Qt14ConnectionTypeE
FNDA:2,_ZN7QObject7connectIM9QIODeviceFvvEM11PogodiStaUIFvvEEEN11QMetaObject10ConnectionEPKN9QtPrivate15FunctionPointerIT_E6ObjectESB_PKNSA_IT0_E6ObjectESG_N2Qt14ConnectionTypeE
FN:228,_ZN7QObject7connectIM6QTimerFvNS1_14QPrivateSignalEEM11PogodiStaUIFvvEEEN11QMetaObject10ConnectionEPKN9QtPrivate15FunctionPointerIT_E6ObjectESC_PKNSB_IT0_E6ObjectESH_N2Qt14ConnectionTypeE
FNDA:2,_ZN7QObject7connectIM6QTimerFvNS1_14QPrivateSignalEEM11PogodiStaUIFvvEEEN11QMetaObject10ConnectionEPKN9QtPrivate15FunctionPointerIT_E6ObjectESC_PKNSB_IT0_E6ObjectESH_N2Qt14ConnectionTypeE
FN:353,_ZN7QObject10disconnectIM11PogodiStaUIFvvES3_EEbPKN9QtPrivate15FunctionPointerIT_E6ObjectES6_PKNS5_IT0_E6ObjectESB_
FNDA:2,_ZN7QObject10disconnectIM11PogodiStaUIFvvES3_EEbPKN9QtPrivate15FunctionPointerIT_E6ObjectES6_PKNS5_IT0_E6ObjectESB_
FN:353,_ZN7QObject10disconnectIM6QTimerFvNS1_14QPrivateSignalEEM11PogodiStaUIFvvEEEbPKN9QtPrivate15FunctionPointerIT_E6ObjectESA_PKNS9_IT0_E6ObjectESF_
FNDA:2,_ZN7QObject10disconnectIM6QTimerFvNS1_14QPrivateSignalEEM11PogodiStaUIFvvEEEbPKN9QtPrivate15FunctionPointerIT_E6ObjectESA_PKNS9_IT0_E6ObjectESF_
FN:353,_ZN7QObject10disconnectIM9QIODeviceFvvEM11PogodiStaUIFvvEEEbPKN9QtPrivate15FunctionPointerIT_E6ObjectES9_PKNS8_IT0_E6ObjectESE_
FNDA:2,_ZN7QObject10disconnectIM9QIODeviceFvvEM11PogodiStaUIFvvEEEbPKN9QtPrivate15FunctionPointerIT_E6ObjectES9_PKNS8_IT0_E6ObjectESE_
DA:228,2
DA:246,2
DA:247,2
DA:248,0
DA:252,2
DA:254,2
DA:228,2
DA:246,2
DA:247,2
DA:248,0
DA:252,2
DA:254,2
DA:228,2
DA:246,2
DA:247,2
DA:248,0
DA:252,2
DA:254,2
DA:228,2
DA:246,2
DA:247,2
DA:248,0
DA:252,2
DA:254,2
DA:353,2
DA:366,2
DA:367,2
DA:353,2
DA:366,2
DA:367,2
DA:353,2
DA:366,2
DA:367,2
end_of_record
SF:/usr/include/x86_64-linux-gnu/qt5/QtCore/qrefcount.h
FN:54,_ZN9QtPrivate8RefCount3refEv
FNDA:0,_ZN9QtPrivate8RefCount3refEv
FN:65,_ZN9QtPrivate8RefCount5derefEv
FNDA:0,_ZN9QtPrivate8RefCount5derefEv
FN:99,_ZNK9QtPrivate8RefCount8isSharedEv
FNDA:0,_ZNK9QtPrivate8RefCount8isSharedEv
DA:54,0
DA:55,0
DA:57,0
DA:58,0
DA:60,0
DA:61,0
DA:62,0
DA:65,0
DA:66,0
DA:68,0
DA:69,0
DA:71,0
DA:72,0
DA:73,0
DA:99,0
DA:101,0
DA:102,0
end_of_record
